(lp0
(F0.0
F0.0
tp1
a(F0.0
F0.0
tp2
a(F0.05000000074505806
F-1.551609754562378
tp3
a(F1.0
F-0.28845304250717163
tp4
a(F0.05000000074505806
F0.5572861433029175
tp5
a(F0.4901891052722931
F1.0373866558074951
tp6
a(F0.8185648918151855
F-0.7286326885223389
tp7
a(F0.8185648918151855
F-0.7286326885223389
tp8
a(F0.0
F0.0
tp9
a(F0.6542290449142456
F1.20142662525177
tp10
a(F0.6542290449142456
F1.20142662525177
tp11
a(F1.0
F-0.20558685064315796
tp12
a(F0.42990052700042725
F-1.1172970533370972
tp13
a(F0.8721007108688354
F1.4192982912063599
tp14
a(F0.05000000074505806
F-1.5707963267948966
tp15
a(F0.8322217464447021
F1.3794193267822266
tp16
a(F0.3346380889415741
F0.8818356990814209
tp17
a(F0.7260303497314453
F1.2732279300689697
tp18
a(F0.48919424414634705
F-1.058003306388855
tp19
a(F0.9725028276443481
F-0.5746947526931763
tp20
a(F0.05000000074505806
F-1.5707963267948966
tp21
a(F0.8199362754821777
F-0.7272613048553467
tp22
a(F0.1081116795539856
F0.65530925989151
tp23
a(F0.7643289566040039
F1.3115265369415283
tp24
a(F0.5635057091712952
F-0.9836918711662292
tp25
a(F0.9342840909957886
F-0.6122281551361084
tp26
a(F0.0
F0.0
tp27
a(F0.0
F0.0
tp28
a(F0.5
F1.0471975803375244
tp29
a(F0.5
F1.0471975803375244
tp30
a(F0.5
F1.0471975803375244
tp31
a(F0.5
F1.0471975803375244
tp32
a(F0.5
F1.0471975803375244
tp33
a(F0.5
F1.0471975803375244
tp34
a(F0.5
F1.0471975803375244
tp35
a(F0.5
F1.0471975803375244
tp36
a(F0.5
F1.0471975803375244
tp37
a(F0.5
F1.0471975803375244
tp38
a(F0.5
F1.0471975803375244
tp39
a(F0.5
F1.0471975803375244
tp40
a(F0.0
F0.0
tp41
a(F0.0
F0.0
tp42
a(F0.0
F0.0
tp43
a(F0.0
F0.0
tp44
a(F0.0
F0.0
tp45
a(F0.0
F0.0
tp46
a(F0.5
F-1.0471975803375244
tp47
a(F0.5
F1.0471975803375244
tp48
a(F0.5
F-1.0471975803375244
tp49
a(F0.0
F0.0
tp50
a(F0.5
F-1.0471975803375244
tp51
a(F0.5
F-1.0471975803375244
tp52
a(F0.5
F-1.0471975803375244
tp53
a(F0.5
F-1.0471975803375244
tp54
a(F0.5
F-1.0471975803375244
tp55
a(F0.5
F1.0471975803375244
tp56
a(F0.5
F-1.0471975803375244
tp57
a(F0.0
F0.0
tp58
a(F0.5
F1.0471975803375244
tp59
a(F0.5
F-1.0471975803375244
tp60
a(F0.5
F-1.0471975803375244
tp61
a(F0.5
F-1.0471975803375244
tp62
a(F0.5
F-1.0471975803375244
tp63
a(F0.5
F1.0471975803375244
tp64
a(F0.5
F-1.0471975803375244
tp65
a(F0.5
F-1.0471975803375244
tp66
a(F0.5
F-1.0471975803375244
tp67
a(F0.5
F-1.0471975803375244
tp68
a(F0.5
F1.0471975803375244
tp69
a(F0.5
F1.0471975803375244
tp70
a(F0.5
F1.0471975803375244
tp71
a(F0.5
F-1.0471975803375244
tp72
a(F0.5
F-1.0471975803375244
tp73
a(F0.5
F-1.0470975637435913
tp74
a(F0.5
F1.0471975803375244
tp75
a(F0.5
F1.0471975803375244
tp76
a(F0.5
F1.0471975803375244
tp77
a(F0.0
F0.0
tp78
a(F0.0
F0.0
tp79
a(F0.5
F-1.0471975803375244
tp80
a(F0.5
F-1.0471975803375244
tp81
a(F0.5
F-1.0471975803375244
tp82
a(F0.5
F-1.0471975803375244
tp83
a(F0.5
F-1.0471975803375244
tp84
a(F0.5
F-1.0471975803375244
tp85
a(F0.5
F-1.0471975803375244
tp86
a(F0.5
F-1.0471975803375244
tp87
a(F0.5
F-1.0471975803375244
tp88
a(F0.5
F-1.0471975803375244
tp89
a(F0.5
F-1.0471975803375244
tp90
a(F0.5
F1.0471975803375244
tp91
a(F0.5
F1.0471975803375244
tp92
a(F0.0
F0.0
tp93
a(F0.0
F0.0
tp94
a(F0.0
F0.0
tp95
a(F0.0
F0.0
tp96
a(F0.0
F0.0
tp97
a(F0.0
F0.0
tp98
a(F0.5
F1.0471975803375244
tp99
a(F0.5
F1.0471975803375244
tp100
a(F0.5
F1.0471975803375244
tp101
a(F0.5
F1.0471975803375244
tp102
a(F0.5
F1.0471975803375244
tp103
a(F0.5
F1.0471975803375244
tp104
a(F0.5
F1.0471975803375244
tp105
a(F0.5
F1.0471975803375244
tp106
a(F0.5
F-1.0471975803375244
tp107
a(F0.5
F-1.0471975803375244
tp108
a(F0.5
F-1.0471975803375244
tp109
a(F0.0
F0.0
tp110
a(F0.5
F-1.0471975803375244
tp111
a(F0.5
F-1.0471975803375244
tp112
a(F0.5
F1.0471975803375244
tp113
a(F0.5
F1.0471975803375244
tp114
a(F0.5
F-1.0471975803375244
tp115
a(F0.0
F0.0
tp116
a(F0.5
F-1.0471975803375244
tp117
a(F0.5
F-0.008069510571658611
tp118
a(F0.0
F0.0
tp119
a(F0.5
F-1.0471975803375244
tp120
a(F0.5
F1.047194004058838
tp121
a(F0.5
F-1.0471975803375244
tp122
a(F0.5
F1.0471926927566528
tp123
a(F0.5
F-1.0471938848495483
tp124
a(F0.5
F1.0471975803375244
tp125
a(F0.5
F1.0471975803375244
tp126
a(F0.5
F1.0471975803375244
tp127
a(F0.0
F0.0
tp128
a(F0.0
F0.0
tp129
a(F0.5
F-1.0471975803375244
tp130
a(F0.5
F-1.0471975803375244
tp131
a(F0.5
F1.0471975803375244
tp132
a(F0.5
F1.0471975803375244
tp133
a(F0.5
F-1.0471975803375244
tp134
a(F0.5
F1.0471975803375244
tp135
a(F0.5
F-1.0471975803375244
tp136
a(F0.5
F-1.0243465900421143
tp137
a(F0.5
F1.0471975803375244
tp138
a(F0.0
F0.0
tp139
a(F0.5
F1.0471975803375244
tp140
a(F0.0
F0.0
tp141
a(F0.0
F0.0
tp142
a(F0.0
F0.0
tp143
a(F0.0
F0.0
tp144
a(F0.0
F0.0
tp145
a(F0.5
F-1.0471975803375244
tp146
a(F0.5
F1.0471975803375244
tp147
a(F0.5
F1.0471975803375244
tp148
a(F0.5
F1.0471975803375244
tp149
a(F0.5
F1.0471975803375244
tp150
a(F0.5
F1.0471975803375244
tp151
a(F0.5
F1.0471975803375244
tp152
a(F0.0
F0.0
tp153
a(F0.0
F0.0
tp154
a(F0.5
F-1.0471975803375244
tp155
a(F0.5
F-1.0471975803375244
tp156
a(F0.5
F-1.0471975803375244
tp157
a(F0.5
F-1.0471975803375244
tp158
a(F0.5
F-1.0471975803375244
tp159
a(F0.5
F-1.0471975803375244
tp160
a(F0.5
F-1.0471975803375244
tp161
a(F0.5
F-1.0471975803375244
tp162
a(F0.5
F-1.0471975803375244
tp163
a(F0.5
F-1.0471975803375244
tp164
a(F0.5
F-1.0471975803375244
tp165
a(F0.0
F0.0
tp166
a(F0.0
F0.0
tp167
a(F0.0
F0.0
tp168
a(F0.0
F0.0
tp169
a(F0.0
F0.0
tp170
a(F0.5
F-1.0471975803375244
tp171
a(F0.5
F1.0471975803375244
tp172
a(F0.5
F1.0471975803375244
tp173
a(F0.5
F-1.0471951961517334
tp174
a(F0.0
F0.0
tp175
a(F0.0
F0.0
tp176
a(F0.5
F1.0471975803375244
tp177
a(F0.5
F1.0471975803375244
tp178
a(F0.5
F1.0471975803375244
tp179
a(F0.5
F1.0471975803375244
tp180
a(F0.5
F1.0471975803375244
tp181
a(F0.5
F1.0471975803375244
tp182
a(F0.5
F1.0471975803375244
tp183
a(F0.5
F1.0471975803375244
tp184
a(F0.5
F1.0471975803375244
tp185
a(F0.5
F1.0471975803375244
tp186
a(F0.5
F1.0471975803375244
tp187
a(F0.0
F0.0
tp188
a(F0.0
F0.0
tp189
a(F0.0
F0.0
tp190
a(F0.0
F0.0
tp191
a(F0.0
F0.0
tp192
a(F0.0
F0.0
tp193
a(F0.0
F0.0
tp194
a(F0.5
F1.0471975803375244
tp195
a(F0.5
F-1.0471975803375244
tp196
a(F0.5
F-1.0471975803375244
tp197
a(F0.5
F-1.0471975803375244
tp198
a(F0.5
F1.0471975803375244
tp199
a(F0.0
F0.0
tp200
a(F0.5
F1.0471975803375244
tp201
a(F0.5
F-1.0471975803375244
tp202
a(F0.5
F-1.0471975803375244
tp203
a(F0.5
F-1.0471975803375244
tp204
a(F0.5
F-1.0471975803375244
tp205
a(F0.5
F-1.0471975803375244
tp206
a(F0.5
F-1.0471975803375244
tp207
a(F0.0
F0.0
tp208
a(F0.5
F1.0471975803375244
tp209
a(F0.5
F-1.0471975803375244
tp210
a(F0.5
F1.0471975803375244
tp211
a(F0.5
F-1.0471975803375244
tp212
a(F0.5
F1.0471975803375244
tp213
a(F0.5
F1.0471975803375244
tp214
a(F0.5
F-1.0471975803375244
tp215
a(F0.5
F-1.0471975803375244
tp216
a(F0.5
F1.0471975803375244
tp217
a(F0.5
F1.0471975803375244
tp218
a(F0.5
F-1.0471975803375244
tp219
a(F0.5
F1.0471975803375244
tp220
a(F0.5
F1.0471975803375244
tp221
a(F0.5
F1.0471975803375244
tp222
a(F0.5
F1.0471975803375244
tp223
a(F0.0
F0.0
tp224
a(F0.0
F0.0
tp225
a(F0.5
F1.0471975803375244
tp226
a(F0.5
F1.0471975803375244
tp227
a(F0.5
F1.0471975803375244
tp228
a(F0.5
F1.0471975803375244
tp229
a(F0.5
F1.0471975803375244
tp230
a(F0.5
F1.0471975803375244
tp231
a(F0.5
F1.0471975803375244
tp232
a(F0.5
F1.0471975803375244
tp233
a(F0.5
F1.0471975803375244
tp234
a(F0.5
F1.0471975803375244
tp235
a(F0.5
F1.0471975803375244
tp236
a(F0.0
F0.0
tp237
a(F0.0
F0.0
tp238
a(F0.0
F0.0
tp239
a(F0.0
F0.0
tp240
a(F0.5
F1.0471975803375244
tp241
a(F0.0
F0.0
tp242
a(F0.0
F0.0
tp243
a(F0.5
F1.0471975803375244
tp244
a(F0.5
F1.0471975803375244
tp245
a(F0.5
F1.0471975803375244
tp246
a(F0.5
F-1.0471975803375244
tp247
a(F0.5
F-1.0471975803375244
tp248
a(F0.5
F-1.0471975803375244
tp249
a(F0.5
F-1.0471975803375244
tp250
a(F0.5
F-1.0471975803375244
tp251
a(F0.5
F1.0471975803375244
tp252
a(F0.5
F1.0471975803375244
tp253
a(F0.5
F-1.0471975803375244
tp254
a(F0.5
F-1.0471975803375244
tp255
a(F0.5
F-1.0471975803375244
tp256
a(F0.5
F-1.0471975803375244
tp257
a(F0.5
F-1.0471975803375244
tp258
a(F0.5
F1.0471975803375244
tp259
a(F0.5
F1.0471975803375244
tp260
a(F0.5
F-1.0471975803375244
tp261
a(F0.5
F-1.0471975803375244
tp262
a(F0.5
F1.0471972227096558
tp263
a(F0.5
F-1.045831322669983
tp264
a(F0.5
F1.0471975803375244
tp265
a(F0.0
F0.0
tp266
a(F0.5
F1.0471975803375244
tp267
a(F0.5
F1.0471975803375244
tp268
a(F0.5
F1.0471975803375244
tp269
a(F0.5
F1.0471975803375244
tp270
a(F0.5
F1.0471975803375244
tp271
a(F0.5
F-1.0471975803375244
tp272
a(F0.5
F-1.0471975803375244
tp273
a(F0.5
F-1.0471975803375244
tp274
a(F0.5
F-1.0471975803375244
tp275
a(F0.5
F-1.0471975803375244
tp276
a(F0.5
F-1.0471975803375244
tp277
a(F0.5
F-1.0471975803375244
tp278
a(F0.5
F1.0471975803375244
tp279
a(F0.5
F-1.0471975803375244
tp280
a(F0.5
F1.0471975803375244
tp281
a(F0.5
F-1.0471975803375244
tp282
a(F0.5
F-1.0471975803375244
tp283
a(F0.5
F-1.0471975803375244
tp284
a(F0.5
F1.0471975803375244
tp285
a(F0.0
F0.0
tp286
a(F0.0
F0.0
tp287
a(F0.5
F-1.0471975803375244
tp288
a(F0.5
F-1.0471975803375244
tp289
a(F0.5
F1.0471975803375244
tp290
a(F0.5
F1.0471975803375244
tp291
a(F0.5
F-1.0471975803375244
tp292
a(F0.5
F-1.0471975803375244
tp293
a(F0.5
F1.0471975803375244
tp294
a(F0.5
F1.0471975803375244
tp295
a(F0.5
F-1.0471975803375244
tp296
a(F0.0
F0.0
tp297
a(F0.5
F1.0471975803375244
tp298
a(F0.5
F-1.0471975803375244
tp299
a(F0.0
F0.0
tp300
a(F0.0
F0.0
tp301
a(F0.0
F0.0
tp302
a(F0.0
F0.0
tp303
a(F0.5
F-1.0471975803375244
tp304
a(F0.5
F-1.0471975803375244
tp305
a(F0.5
F-1.0471975803375244
tp306
a(F0.5
F-1.0471975803375244
tp307
a(F0.5
F-1.0471975803375244
tp308
a(F0.5
F-1.0471975803375244
tp309
a(F0.5
F-1.0471975803375244
tp310
a(F0.5
F-1.0471975803375244
tp311
a(F0.5
F-1.0471975803375244
tp312
a(F0.0
F0.0
tp313
a(F0.0
F0.0
tp314
a(F0.0
F0.0
tp315
a(F0.0
F0.0
tp316
a(F0.0
F0.0
tp317
a(F0.5
F1.0471975803375244
tp318
a(F0.5
F1.0471975803375244
tp319
a(F0.5
F1.0471975803375244
tp320
a(F0.5
F1.0471975803375244
tp321
a(F0.0
F0.0
tp322
a(F0.0
F0.0
tp323
a(F0.5
F-1.0471975803375244
tp324
a(F0.5
F-1.0471975803375244
tp325
a(F0.5
F-1.0471975803375244
tp326
a(F0.5
F-1.0471975803375244
tp327
a(F0.5
F-1.0471975803375244
tp328
a(F0.5
F-1.0471975803375244
tp329
a(F0.5
F-1.0471975803375244
tp330
a(F0.5
F-1.0471975803375244
tp331
a(F0.5
F-1.0471975803375244
tp332
a(F0.5
F1.0471975803375244
tp333
a(F0.0
F0.0
tp334
a(F0.0
F0.0
tp335
a(F0.0
F0.0
tp336
a(F0.0
F0.0
tp337
a(F0.0
F0.0
tp338
a(F0.0
F0.0
tp339
a(F0.0
F0.0
tp340
a(F0.5
F-1.0471456050872803
tp341
a(F0.5
F1.0471975803375244
tp342
a(F0.5
F1.0471975803375244
tp343
a(F0.5
F1.0471975803375244
tp344
a(F0.5
F-1.0471975803375244
tp345
a(F0.5
F-1.0471975803375244
tp346
a(F0.5
F1.0471975803375244
tp347
a(F0.5
F-1.0471975803375244
tp348
a(F0.5
F1.0471975803375244
tp349
a(F0.0
F0.0
tp350
a(F0.0
F0.0
tp351
a(F0.0
F0.0
tp352
a(F0.5
F-1.0471975803375244
tp353
a(F0.5
F-1.0471975803375244
tp354
a(F0.5
F-1.0471975803375244
tp355
a(F0.5
F-1.0471975803375244
tp356
a(F0.5
F-1.0471975803375244
tp357
a(F0.5
F-1.0471975803375244
tp358
a(F0.5
F-1.0471975803375244
tp359
a(F0.5
F1.0471975803375244
tp360
a(F0.5
F-1.0471975803375244
tp361
a(F0.5
F-1.0471975803375244
tp362
a(F0.5
F1.0471975803375244
tp363
a(F0.5
F1.0471975803375244
tp364
a(F0.5
F1.0471975803375244
tp365
a(F0.5
F1.0471975803375244
tp366
a(F0.5
F-1.0471975803375244
tp367
a(F0.5
F1.0471975803375244
tp368
a(F0.0
F0.0
tp369
a(F0.0
F0.0
tp370
a(F0.0
F0.0
tp371
a(F0.5
F1.0471975803375244
tp372
a(F0.5
F1.0471975803375244
tp373
a(F0.5
F1.0471975803375244
tp374
a(F0.5
F1.0471975803375244
tp375
a(F0.5
F1.0471975803375244
tp376
a(F0.5
F1.0471975803375244
tp377
a(F0.5
F1.0471975803375244
tp378
a(F0.0
F0.0
tp379
a(F0.0
F0.0
tp380
a(F0.0
F0.0
tp381
a(F0.0
F0.0
tp382
a(F0.0
F0.0
tp383
a(F0.0
F0.0
tp384
a(F0.5
F1.0471975803375244
tp385
a(F0.5
F1.0471975803375244
tp386
a(F0.5
F1.0471975803375244
tp387
a(F0.5
F1.0471975803375244
tp388
a(F0.5
F1.0471975803375244
tp389
a(F0.5
F1.0471975803375244
tp390
a(F0.5
F1.0471975803375244
tp391
a(F0.5
F1.0471975803375244
tp392
a(F0.5
F1.0471975803375244
tp393
a(F0.5
F1.0471975803375244
tp394
a(F0.5
F1.0471975803375244
tp395
a(F0.5
F1.0471975803375244
tp396
a(F0.5
F1.0471975803375244
tp397
a(F0.5
F-1.0471975803375244
tp398
a(F0.5
F-1.0471975803375244
tp399
a(F0.5
F1.0471975803375244
tp400
a(F0.5
F-1.0471975803375244
tp401
a(F0.5
F-1.0471975803375244
tp402
a(F0.5
F-1.0471975803375244
tp403
a(F0.5
F1.0471975803375244
tp404
a(F0.5
F1.0471975803375244
tp405
a(F0.5
F1.0471975803375244
tp406
a(F0.5
F1.0471975803375244
tp407
a(F0.5
F1.0471975803375244
tp408
a(F0.5
F1.0471975803375244
tp409
a(F0.5
F1.0471975803375244
tp410
a(F0.5
F1.0471975803375244
tp411
a(F0.5
F-1.0471975803375244
tp412
a(F0.5
F-1.0471975803375244
tp413
a(F0.5
F-1.0471975803375244
tp414
a(F0.5
F1.0471975803375244
tp415
a(F0.5
F-1.0471975803375244
tp416
a(F0.5
F-1.0471975803375244
tp417
a(F0.5
F1.0471975803375244
tp418
a(F0.5
F-1.046827793121338
tp419
a(F0.5
F1.0471975803375244
tp420
a(F0.5
F-1.0471975803375244
tp421
a(F0.5
F-1.0471975803375244
tp422
a(F0.5
F-1.0471975803375244
tp423
a(F0.5
F-1.0471975803375244
tp424
a(F0.5
F-1.0471975803375244
tp425
a(F0.5
F-1.0471975803375244
tp426
a(F0.5
F1.0471975803375244
tp427
a(F0.5
F1.0471975803375244
tp428
a(F0.5
F-1.0471975803375244
tp429
a(F0.5
F-1.0471975803375244
tp430
a(F0.5
F-1.0471975803375244
tp431
a(F0.5
F1.0471975803375244
tp432
a(F0.5
F1.0471975803375244
tp433
a(F0.5
F1.0471975803375244
tp434
a(F0.0
F0.0
tp435
a(F0.0
F0.0
tp436
a(F0.0
F0.0
tp437
a(F0.5
F1.0471975803375244
tp438
a(F0.5
F1.0471975803375244
tp439
a(F0.5
F1.0471975803375244
tp440
a(F0.5
F1.0471975803375244
tp441
a(F0.5
F1.0471975803375244
tp442
a(F0.5
F1.0471975803375244
tp443
a(F0.5
F1.0471975803375244
tp444
a(F0.5
F1.0471975803375244
tp445
a(F0.5
F1.0471975803375244
tp446
a(F0.5
F1.0471975803375244
tp447
a(F0.5
F1.0471975803375244
tp448
a(F0.0
F0.0
tp449
a(F0.0
F0.0
tp450
a(F0.0
F0.0
tp451
a(F0.0
F0.0
tp452
a(F0.0
F0.0
tp453
a(F0.0
F0.0
tp454
a(F0.0
F0.0
tp455
a(F0.0
F0.0
tp456
a(F0.0
F0.0
tp457
a(F0.0
F0.0
tp458
a(F0.5
F1.0471975803375244
tp459
a(F0.5
F1.0471975803375244
tp460
a(F0.5
F1.0471975803375244
tp461
a(F0.5
F1.0471975803375244
tp462
a(F0.5
F1.0471975803375244
tp463
a(F0.5
F1.0471975803375244
tp464
a(F0.5
F1.0471975803375244
tp465
a(F0.5
F1.0471975803375244
tp466
a(F0.5
F1.0471975803375244
tp467
a(F0.5
F1.0471975803375244
tp468
a(F0.5
F1.0471975803375244
tp469
a(F0.0
F0.0
tp470
a(F0.0
F0.0
tp471
a(F0.0
F0.0
tp472
a(F0.0
F0.0
tp473
a(F0.0
F0.0
tp474
a(F0.5
F1.0471975803375244
tp475
a(F0.5
F1.0471975803375244
tp476
a(F0.5
F1.0471975803375244
tp477
a(F0.5
F1.0471975803375244
tp478
a(F0.5
F1.0471975803375244
tp479
a(F0.5
F-1.0471975803375244
tp480
a(F0.5
F-1.0471975803375244
tp481
a(F0.5
F1.0471975803375244
tp482
a(F0.5
F-1.0471975803375244
tp483
a(F0.5
F-1.0471975803375244
tp484
a(F0.5
F-1.0471975803375244
tp485
a(F0.5
F-1.0471975803375244
tp486
a(F0.5
F1.0471975803375244
tp487
a(F0.5
F1.0471975803375244
tp488
a(F0.5
F-1.0471975803375244
tp489
a(F0.5
F-1.0471975803375244
tp490
a(F0.5
F-1.0471975803375244
tp491
a(F0.5
F1.0471975803375244
tp492
a(F0.5
F-1.0453747510910034
tp493
a(F0.5
F-1.0453747510910034
tp494
a(F0.5
F1.0471975803375244
tp495
a(F0.5
F-1.0471975803375244
tp496
a(F0.5
F1.0471975803375244
tp497
a(F0.5
F1.0471975803375244
tp498
a(F0.5
F0.9203264713287354
tp499
a(F0.5
F-1.0471975803375244
tp500
a(F0.5
F-1.0471975803375244
tp501
a(F0.5
F1.0471975803375244
tp502
a(F0.5
F-1.0471975803375244
tp503
a(F0.5
F-1.0471975803375244
tp504
a(F0.5
F-1.0471975803375244
tp505
a(F0.5
F1.0471975803375244
tp506
a(F0.5
F-1.0471975803375244
tp507
a(F0.5
F-1.0471975803375244
tp508
a(F0.5
F1.0471975803375244
tp509
a(F0.5
F1.0471975803375244
tp510
a(F0.0
F0.0
tp511
a(F0.5
F1.0471975803375244
tp512
a(F0.5
F-1.0471974611282349
tp513
a(F0.5
F1.0471975803375244
tp514
a(F0.5
F-1.0471975803375244
tp515
a(F0.5
F1.0471975803375244
tp516
a(F0.5
F-1.0471975803375244
tp517
a(F0.5
F1.0471975803375244
tp518
a(F0.5
F-1.0471975803375244
tp519
a(F0.5
F1.0471975803375244
tp520
a(F0.5
F-1.0471975803375244
tp521
a(F0.5
F1.0471975803375244
tp522
a(F0.5
F1.0471532344818115
tp523
a(F0.5
F-0.9563717246055603
tp524
a(F0.0
F0.0
tp525
a(F0.0
F0.0
tp526
a(F0.5
F1.0471975803375244
tp527
a(F0.5
F1.0471975803375244
tp528
a(F0.5
F1.0471975803375244
tp529
a(F0.5
F1.0471975803375244
tp530
a(F0.5
F1.0471975803375244
tp531
a(F0.5
F1.0471975803375244
tp532
a(F0.5
F1.0471975803375244
tp533
a(F0.5
F1.0471975803375244
tp534
a(F0.5
F1.0471975803375244
tp535
a(F0.5
F1.0471975803375244
tp536
a(F0.5
F1.0471975803375244
tp537
a(F0.5
F1.0471975803375244
tp538
a(F0.0
F0.0
tp539
a(F0.0
F0.0
tp540
a(F0.0
F0.0
tp541
a(F0.0
F0.0
tp542
a(F0.0
F0.0
tp543
a(F0.5
F-1.0471975803375244
tp544
a(F0.5
F1.0471975803375244
tp545
a(F0.5
F-1.0471975803375244
tp546
a(F0.5
F-1.0471975803375244
tp547
a(F0.5
F1.0471975803375244
tp548
a(F0.5
F1.0471975803375244
tp549
a(F0.5
F-1.0471975803375244
tp550
a(F0.5
F-1.0471975803375244
tp551
a(F0.5
F1.0471975803375244
tp552
a(F0.5
F1.0471975803375244
tp553
a(F0.5
F1.0471975803375244
tp554
a(F0.5
F-1.0471975803375244
tp555
a(F0.5
F1.0471975803375244
tp556
a(F0.5
F-1.0471975803375244
tp557
a(F0.5
F1.0471975803375244
tp558
a(F0.5
F1.0471975803375244
tp559
a(F0.5
F1.0471975803375244
tp560
a(F0.5
F1.0471975803375244
tp561
a(F0.5
F1.0471975803375244
tp562
a(F0.5
F1.0471975803375244
tp563
a(F0.5
F-1.0471975803375244
tp564
a(F0.5
F-1.0471975803375244
tp565
a(F0.5
F1.0471975803375244
tp566
a(F0.5
F1.0471975803375244
tp567
a(F0.5
F1.0471975803375244
tp568
a(F0.5
F1.0471975803375244
tp569
a(F0.5
F1.0471975803375244
tp570
a(F0.5
F1.0471975803375244
tp571
a(F0.5
F-1.0471975803375244
tp572
a(F0.5
F-1.0471975803375244
tp573
a(F0.5
F-1.0471975803375244
tp574
a(F0.5
F-1.0471975803375244
tp575
a(F0.5
F-1.0471975803375244
tp576
a(F0.5
F-1.0471975803375244
tp577
a(F0.5
F1.0471948385238647
tp578
a(F0.5
F1.0471713542938232
tp579
a(F0.5
F1.0471975803375244
tp580
a(F0.5
F1.0471975803375244
tp581
a(F0.5
F1.0471975803375244
tp582
a(F0.5
F1.0471975803375244
tp583
a(F0.5
F1.0471975803375244
tp584
a(F0.5
F1.0471975803375244
tp585
a(F0.5
F1.0471975803375244
tp586
a(F0.5
F1.0471975803375244
tp587
a(F0.5
F1.0471975803375244
tp588
a(F0.5
F1.0471975803375244
tp589
a(F0.0
F0.0
tp590
a(F0.0
F0.0
tp591
a(F0.5
F1.0471975803375244
tp592
a(F0.5
F1.0471975803375244
tp593
a(F0.5
F1.0471975803375244
tp594
a(F0.5
F1.0471975803375244
tp595
a(F0.5
F1.0471975803375244
tp596
a(F0.0
F0.0
tp597
a(F0.5
F1.0471975803375244
tp598
a(F0.5
F1.0471975803375244
tp599
a(F0.5
F1.0471975803375244
tp600
a(F0.5
F1.0471975803375244
tp601
a(F0.5
F1.0471975803375244
tp602
a(F0.5
F1.0471975803375244
tp603
a(F0.0
F0.0
tp604
a(F0.0
F0.0
tp605
a(F0.0
F0.0
tp606
a(F0.0
F0.0
tp607
a(F0.5
F-1.0471975803375244
tp608
a(F0.5
F-1.0471975803375244
tp609
a(F0.5
F1.0471975803375244
tp610
a(F0.0
F0.0
tp611
a(F0.5
F-1.0471975803375244
tp612
a(F0.5
F-1.0471975803375244
tp613
a(F0.5
F1.0471975803375244
tp614
a(F0.5
F1.0471975803375244
tp615
a(F0.5
F1.0471975803375244
tp616
a(F0.5
F-1.0471975803375244
tp617
a(F0.5
F-1.0471975803375244
tp618
a(F0.5
F1.0471975803375244
tp619
a(F0.5
F1.0471975803375244
tp620
a(F0.5
F-1.0471975803375244
tp621
a(F0.5
F1.0471975803375244
tp622
a(F0.5
F1.0471975803375244
tp623
a(F0.5
F-1.0471975803375244
tp624
a(F0.5
F1.0471975803375244
tp625
a(F0.5
F1.0471975803375244
tp626
a(F0.5
F-1.0471975803375244
tp627
a(F0.5
F-1.0469318628311157
tp628
a(F0.5
F1.0471975803375244
tp629
a(F0.5
F-1.0471975803375244
tp630
a(F0.5
F1.0471975803375244
tp631
a(F0.5
F-1.0471975803375244
tp632
a(F0.5
F-1.0471975803375244
tp633
a(F0.5
F1.0471975803375244
tp634
a(F0.5
F1.0471975803375244
tp635
a(F0.5
F1.0471975803375244
tp636
a(F0.5
F1.0471975803375244
tp637
a(F0.5
F1.0471975803375244
tp638
a(F0.5
F1.0471975803375244
tp639
a(F0.5
F1.0471975803375244
tp640
a(F0.0
F0.0
tp641
a(F0.0
F0.0
tp642
a(F0.5
F1.0471975803375244
tp643
a(F0.5
F1.0471975803375244
tp644
a(F0.5
F1.0471975803375244
tp645
a(F0.5
F1.0471975803375244
tp646
a(F0.5
F1.0471975803375244
tp647
a(F0.5
F1.0471975803375244
tp648
a(F0.5
F1.0471975803375244
tp649
a(F0.5
F1.0471975803375244
tp650
a(F0.5
F1.0471975803375244
tp651
a(F0.5
F1.0471975803375244
tp652
a(F0.5
F1.0471975803375244
tp653
a(F0.5
F1.0471975803375244
tp654
a(F0.0
F0.0
tp655
a(F0.0
F0.0
tp656
a(F0.0
F0.0
tp657
a(F0.5
F1.0471975803375244
tp658
a(F0.5
F1.0471975803375244
tp659
a(F0.5
F1.0471975803375244
tp660
a(F0.5
F1.0471975803375244
tp661
a(F0.5
F1.0471975803375244
tp662
a(F0.5
F1.0471975803375244
tp663
a(F0.5
F1.0471975803375244
tp664
a(F0.5
F1.0471975803375244
tp665
a(F0.5
F1.0471975803375244
tp666
a(F0.5
F1.0471975803375244
tp667
a(F0.5
F1.0471975803375244
tp668
a(F0.5
F1.0471975803375244
tp669
a(F0.5
F1.0471975803375244
tp670
a(F0.5
F1.0471975803375244
tp671
a(F0.5
F1.0471975803375244
tp672
a(F0.5
F-1.0471975803375244
tp673
a(F0.5
F-1.0471975803375244
tp674
a(F0.5
F1.0471975803375244
tp675
a(F0.5
F1.0471975803375244
tp676
a(F0.5
F1.0471975803375244
tp677
a(F0.5
F-1.0471975803375244
tp678
a(F0.5
F-1.0471975803375244
tp679
a(F0.5
F1.0471975803375244
tp680
a(F0.5
F1.0471975803375244
tp681
a(F0.5
F-1.0471975803375244
tp682
a(F0.5
F-1.0471975803375244
tp683
a(F0.5
F1.0471975803375244
tp684
a(F0.5
F1.0471975803375244
tp685
a(F0.5
F-1.0471975803375244
tp686
a(F0.5
F-1.0471975803375244
tp687
a(F0.5
F-1.0471975803375244
tp688
a(F0.5
F1.0471975803375244
tp689
a(F0.5
F1.0471975803375244
tp690
a(F0.5
F-1.0471975803375244
tp691
a(F0.5
F1.0471975803375244
tp692
a(F0.5
F1.0471975803375244
tp693
a(F0.5
F1.0471975803375244
tp694
a(F0.5
F1.0471975803375244
tp695
a(F0.5
F-1.0471975803375244
tp696
a(F0.5
F-0.5507670044898987
tp697
a(F0.5
F-1.0471975803375244
tp698
a(F0.5
F-1.0471975803375244
tp699
a(F0.5
F1.0471975803375244
tp700
a(F0.5
F1.0471975803375244
tp701
a(F0.5
F1.0471975803375244
tp702
a(F0.0
F0.0
tp703
a(F0.0
F0.0
tp704
a(F0.5
F1.0471975803375244
tp705
a(F0.5
F1.0471975803375244
tp706
a(F0.5
F1.0471975803375244
tp707
a(F0.5
F1.0471975803375244
tp708
a(F0.5
F1.0471975803375244
tp709
a(F0.5
F1.0471975803375244
tp710
a(F0.5
F1.0471975803375244
tp711
a(F0.5
F1.0471975803375244
tp712
a(F0.5
F1.0471975803375244
tp713
a(F0.5
F1.0471975803375244
tp714
a(F0.5
F1.0471975803375244
tp715
a(F0.5
F1.0471975803375244
tp716
a(F0.0
F0.0
tp717
a(F0.0
F0.0
tp718
a(F0.0
F0.0
tp719
a(F0.0
F0.0
tp720
a(F0.5
F1.0471975803375244
tp721
a(F0.5
F1.0471975803375244
tp722
a(F0.0
F0.0
tp723
a(F0.5
F1.0471975803375244
tp724
a(F0.5
F1.0471975803375244
tp725
a(F0.5
F-1.0471975803375244
tp726
a(F0.5
F-1.0471975803375244
tp727
a(F0.5
F1.0471975803375244
tp728
a(F0.5
F-1.0471975803375244
tp729
a(F0.5
F-1.0471975803375244
tp730
a(F0.5
F-1.0471975803375244
tp731
a(F0.5
F1.0471975803375244
tp732
a(F0.5
F1.0471975803375244
tp733
a(F0.5
F1.0471975803375244
tp734
a(F0.5
F-1.0471975803375244
tp735
a(F0.5
F-1.0471975803375244
tp736
a(F0.5
F-1.0471975803375244
tp737
a(F0.5
F-1.0471975803375244
tp738
a(F0.5
F-1.0471975803375244
tp739
a(F0.5
F1.0471975803375244
tp740
a(F0.5
F1.0471975803375244
tp741
a(F0.5
F-1.0471975803375244
tp742
a(F0.5
F-1.0471975803375244
tp743
a(F0.5
F1.0471975803375244
tp744
a(F0.5
F1.0471975803375244
tp745
a(F0.5
F1.0471975803375244
tp746
a(F0.5
F1.0471975803375244
tp747
a(F0.5
F-1.0471975803375244
tp748
a(F0.5
F-1.0471975803375244
tp749
a(F0.5
F1.0471975803375244
tp750
a(F0.5
F-1.0471975803375244
tp751
a(F0.5
F-1.0471975803375244
tp752
a(F0.5
F-1.0471975803375244
tp753
a(F0.5
F-1.0471975803375244
tp754
a(F0.5
F-1.0471975803375244
tp755
a(F0.5
F1.0471975803375244
tp756
a(F0.5
F1.0471975803375244
tp757
a(F0.5
F1.0471975803375244
tp758
a(F0.5
F1.0471975803375244
tp759
a(F0.5
F-1.0471975803375244
tp760
a(F0.5
F-1.0471975803375244
tp761
a(F0.5
F-1.0471975803375244
tp762
a(F0.5
F1.0153521299362183
tp763
a(F0.5
F-1.0471975803375244
tp764
a(F0.5
F1.0396555662155151
tp765
a(F0.5
F1.0471975803375244
tp766
a(F0.0
F0.0
tp767
a(F0.0
F0.0
tp768
a(F0.5
F1.0471975803375244
tp769
a(F0.5
F1.0471975803375244
tp770
a(F0.5
F1.0471975803375244
tp771
a(F0.5
F1.0471975803375244
tp772
a(F0.5
F1.0471975803375244
tp773
a(F0.5
F1.0471975803375244
tp774
a(F0.5
F1.0471975803375244
tp775
a(F0.0
F0.0
tp776
a(F0.5
F1.0471975803375244
tp777
a(F0.0
F0.0
tp778
a(F0.0
F0.0
tp779
a(F0.0
F0.0
tp780
a(F0.0
F0.0
tp781
a(F0.0
F0.0
tp782
a(F0.0
F0.0
tp783
a(F0.5
F1.0471975803375244
tp784
a(F0.5
F1.0471975803375244
tp785
a(F0.5
F-1.0471975803375244
tp786
a(F0.0
F0.0
tp787
a(F0.0
F0.0
tp788
a(F0.5
F1.0471975803375244
tp789
a(F0.0
F0.0
tp790
a(F0.0
F0.0
tp791
a(F0.5
F1.0471975803375244
tp792
a(F0.5
F-1.0471975803375244
tp793
a(F0.5
F-1.0471975803375244
tp794
a(F0.5
F-1.0471975803375244
tp795
a(F0.5
F-1.0471975803375244
tp796
a(F0.0
F0.0
tp797
a(F0.5
F1.0471975803375244
tp798
a(F0.5
F-1.0471975803375244
tp799
a(F0.5
F-1.0471975803375244
tp800
a(F0.5
F-1.0471975803375244
tp801
a(F0.5
F-1.0471975803375244
tp802
a(F0.5
F-1.0471975803375244
tp803
a(F0.5
F-1.0471975803375244
tp804
a(F0.5
F-1.0471975803375244
tp805
a(F0.5
F-1.0471975803375244
tp806
a(F0.5
F1.0471975803375244
tp807
a(F0.5
F1.0471975803375244
tp808
a(F0.5
F-1.0471975803375244
tp809
a(F0.5
F-1.0471975803375244
tp810
a(F0.5
F-1.0471975803375244
tp811
a(F0.5
F-1.0471975803375244
tp812
a(F0.5
F-1.0471975803375244
tp813
a(F0.5
F1.0471975803375244
tp814
a(F0.0
F0.0
tp815
a(F0.0
F0.0
tp816
a(F0.0
F0.0
tp817
a(F0.0
F0.0
tp818
a(F0.0
F0.0
tp819
a(F0.0
F0.0
tp820
a(F0.0
F0.0
tp821
a(F0.0
F0.0
tp822
a(F0.5
F1.0471975803375244
tp823
a(F0.0
F0.0
tp824
a(F0.5
F1.0471975803375244
tp825
a(F0.5
F1.0471975803375244
tp826
a(F0.5
F1.0471975803375244
tp827
a(F0.0
F0.0
tp828
a(F0.0
F0.0
tp829
a(F0.5
F1.0471975803375244
tp830
a(F0.5
F1.0471975803375244
tp831
a(F0.5
F1.0471975803375244
tp832
a(F0.5
F1.0471975803375244
tp833
a(F0.0
F0.0
tp834
a(F0.0
F0.0
tp835
a(F0.0
F0.0
tp836
a(F0.0
F0.0
tp837
a(F0.0
F0.0
tp838
a(F0.5
F1.0471975803375244
tp839
a(F0.5
F1.0471975803375244
tp840
a(F0.5
F1.0471975803375244
tp841
a(F0.5
F1.0471975803375244
tp842
a(F0.5
F1.0471975803375244
tp843
a(F0.5
F1.0471975803375244
tp844
a(F0.5
F1.0471975803375244
tp845
a(F0.0
F0.0
tp846
a(F0.5
F1.0471975803375244
tp847
a(F0.5
F1.0471975803375244
tp848
a(F0.5
F1.0471975803375244
tp849
a(F0.5
F1.0471975803375244
tp850
a(F0.5
F1.0471975803375244
tp851
a(F0.5
F1.0471975803375244
tp852
a(F0.5
F-1.0471975803375244
tp853
a(F0.5
F-1.0471975803375244
tp854
a(F0.0
F0.0
tp855
a(F0.5
F-1.0471975803375244
tp856
a(F0.0
F0.0
tp857
a(F0.5
F1.0471975803375244
tp858
a(F0.0
F0.0
tp859
a(F0.0
F0.0
tp860
a(F0.5
F1.0471975803375244
tp861
a(F0.5
F-1.0471975803375244
tp862
a(F0.5
F1.0471975803375244
tp863
a(F0.5
F1.0471975803375244
tp864
a(F0.5
F-1.0471975803375244
tp865
a(F0.5
F-1.0471975803375244
tp866
a(F0.5
F-1.0471975803375244
tp867
a(F0.5
F-1.0471975803375244
tp868
a(F0.5
F1.0471975803375244
tp869
a(F0.5
F1.0471975803375244
tp870
a(F0.5
F1.0471975803375244
tp871
a(F0.5
F-1.0471975803375244
tp872
a(F0.5
F-1.0471975803375244
tp873
a(F0.5
F-1.0471975803375244
tp874
a(F0.5
F-1.0471975803375244
tp875
a(F0.5
F1.0471975803375244
tp876
a(F0.5
F1.0471975803375244
tp877
a(F0.5
F1.0471975803375244
tp878
a(F0.5
F-1.0471975803375244
tp879
a(F0.5
F-1.0471975803375244
tp880
a(F0.0
F0.0
tp881
a(F0.0
F0.0
tp882
a(F0.0
F0.0
tp883
a(F0.0
F0.0
tp884
a(F0.0
F0.0
tp885
a(F0.5
F1.0471975803375244
tp886
a(F0.5
F1.0471975803375244
tp887
a(F0.5
F1.0471975803375244
tp888
a(F0.5
F1.0471975803375244
tp889
a(F0.5
F1.0471975803375244
tp890
a(F0.5
F1.0471975803375244
tp891
a(F0.5
F1.0471975803375244
tp892
a(F0.0
F0.0
tp893
a(F0.0
F0.0
tp894
a(F0.0
F0.0
tp895
a(F0.0
F0.0
tp896
a(F0.0
F0.0
tp897
a(F0.0
F0.0
tp898
a(F0.5
F1.0471975803375244
tp899
a(F0.5
F1.0471975803375244
tp900
a(F0.5
F-1.0471975803375244
tp901
a(F0.5
F-1.0471975803375244
tp902
a(F0.5
F-1.0471975803375244
tp903
a(F0.5
F1.0471975803375244
tp904
a(F0.5
F1.0471975803375244
tp905
a(F0.5
F-1.0471975803375244
tp906
a(F0.0
F0.0
tp907
a(F0.0
F0.0
tp908
a(F0.0
F0.0
tp909
a(F0.0
F0.0
tp910
a(F0.0
F0.0
tp911
a(F0.0
F0.0
tp912
a(F0.0
F0.0
tp913
a(F0.0
F0.0
tp914
a(F0.5
F1.0471975803375244
tp915
a(F0.5
F-1.006912112236023
tp916
a(F0.0
F0.0
tp917
a(F0.5
F-1.0471975803375244
tp918
a(F0.5
F1.0471975803375244
tp919
a(F0.5
F1.0471975803375244
tp920
a(F0.5
F-1.0471975803375244
tp921
a(F0.5
F-1.0471975803375244
tp922
a(F0.5
F-1.0471975803375244
tp923
a(F0.5
F-1.0471975803375244
tp924
a(F0.5
F1.0471975803375244
tp925
a(F0.5
F1.0471975803375244
tp926
a(F0.5
F-1.0471975803375244
tp927
a(F0.5
F-1.0471975803375244
tp928
a(F0.5
F-1.0471975803375244
tp929
a(F0.5
F1.0471975803375244
tp930
a(F0.5
F-1.0471975803375244
tp931
a(F0.0
F0.0
tp932
a(F0.5
F1.0471975803375244
tp933
a(F0.0
F0.0
tp934
a(F0.5
F1.0471975803375244
tp935
a(F0.5
F1.0471975803375244
tp936
a(F0.5
F-1.0471975803375244
tp937
a(F0.5
F-1.0471975803375244
tp938
a(F0.5
F-1.0471975803375244
tp939
a(F0.0
F0.0
tp940
a(F0.5
F1.0471975803375244
tp941
a(F0.5
F1.028992772102356
tp942
a(F0.5
F-1.0471975803375244
tp943
a(F0.5
F-1.0471975803375244
tp944
a(F0.5
F1.0471949577331543
tp945
a(F0.5
F1.0471975803375244
tp946
a(F0.5
F1.0471975803375244
tp947
a(F0.5
F1.0471975803375244
tp948
a(F0.0
F0.0
tp949
a(F0.0
F0.0
tp950
a(F0.5
F-1.0471975803375244
tp951
a(F0.5
F-1.0471975803375244
tp952
a(F0.5
F1.0471975803375244
tp953
a(F0.5
F1.0471975803375244
tp954
a(F0.5
F-1.0471975803375244
tp955
a(F0.5
F-1.0471975803375244
tp956
a(F0.0
F0.0
tp957
a(F0.0
F0.0
tp958
a(F0.0
F0.0
tp959
a(F0.0
F0.0
tp960
a(F0.0
F0.0
tp961
a(F0.0
F0.0
tp962
a(F0.0
F0.0
tp963
a(F0.0
F0.0
tp964
a(F0.0
F0.0
tp965
a(F0.0
F0.0
tp966
a(F0.0
F0.0
tp967
a(F0.0
F0.0
tp968
a(F0.0
F0.0
tp969
a(F0.0
F0.0
tp970
a(F0.0
F0.0
tp971
a(F0.0
F0.0
tp972
a(F0.0
F0.0
tp973
a(F0.0
F0.0
tp974
a(F0.0
F0.0
tp975
a(F0.0
F0.0
tp976
a(F0.0
F0.0
tp977
a(F0.0
F0.0
tp978
a(F0.0
F0.0
tp979
a(F0.0
F0.0
tp980
a(F0.0
F0.0
tp981
a(F0.0
F0.0
tp982
a(F0.0
F0.0
tp983
a(F0.0
F0.0
tp984
a(F0.5
F1.0471975803375244
tp985
a(F0.0
F0.0
tp986
a(F0.0
F0.0
tp987
a(F0.0
F0.0
tp988
a(F0.0
F0.0
tp989
a(F0.0
F0.0
tp990
a(F0.0
F0.0
tp991
a(F0.0
F0.0
tp992
a(F0.0
F0.0
tp993
a(F0.0
F0.0
tp994
a(F0.0
F0.0
tp995
a(F0.0
F0.0
tp996
a(F0.0
F0.0
tp997
a(F0.0
F0.0
tp998
a(F0.0
F0.0
tp999
a(F0.0
F0.0
tp1000
a(F0.0
F0.0
tp1001
a(F0.0
F0.0
tp1002
a(F0.0
F0.0
tp1003
a(F0.0
F0.0
tp1004
a(F0.0
F0.0
tp1005
a(F0.0
F0.0
tp1006
a(F0.0
F0.0
tp1007
a(F0.0
F0.0
tp1008
a(F0.0
F0.0
tp1009
a(F0.0
F0.0
tp1010
a(F0.0
F0.0
tp1011
a(F0.0
F0.0
tp1012
a(F0.0
F0.0
tp1013
a(F0.0
F0.0
tp1014
a(F0.0
F0.0
tp1015
a(F0.0
F0.0
tp1016
a(F0.0
F0.0
tp1017
a(F0.0
F0.0
tp1018
a(F0.0
F0.0
tp1019
a(F0.0
F0.0
tp1020
a(F0.0
F0.0
tp1021
a(F0.0
F0.0
tp1022
a(F0.0
F0.0
tp1023
a(F0.0
F0.0
tp1024
a(F0.0
F0.0
tp1025
a(F0.0
F0.0
tp1026
a(F0.0
F0.0
tp1027
a(F0.0
F0.0
tp1028
a(F0.0
F0.0
tp1029
a(F0.0
F0.0
tp1030
a(F0.0
F0.0
tp1031
a(F0.0
F0.0
tp1032
a(F0.0
F0.0
tp1033
a(F0.0
F0.0
tp1034
a(F0.5
F1.0471975803375244
tp1035
a(F0.5
F1.0471975803375244
tp1036
a(F0.5
F1.0471975803375244
tp1037
a(F0.0
F0.0
tp1038
a(F0.0
F0.0
tp1039
a(F0.5
F1.0471975803375244
tp1040
a(F0.5
F1.0471975803375244
tp1041
a(F0.5
F1.0471975803375244
tp1042
a(F0.5
F1.0471975803375244
tp1043
a(F0.5
F1.0471975803375244
tp1044
a(F0.5
F-1.0471975803375244
tp1045
a(F0.5
F-1.0471975803375244
tp1046
a(F0.5
F-1.0471975803375244
tp1047
a(F0.0
F0.0
tp1048
a(F0.0
F0.0
tp1049
a(F0.0
F0.0
tp1050
a(F0.0
F0.0
tp1051
a(F0.5
F1.0471975803375244
tp1052
a(F0.0
F0.0
tp1053
a(F0.5
F1.0471975803375244
tp1054
a(F0.5
F1.0471975803375244
tp1055
a(F0.0
F0.0
tp1056
a(F0.0
F0.0
tp1057
a(F0.0
F0.0
tp1058
a(F0.0
F0.0
tp1059
a(F0.5
F-1.0471975803375244
tp1060
a(F0.0
F0.0
tp1061
a(F0.5
F-1.0471975803375244
tp1062
a(F0.5
F-1.0471975803375244
tp1063
a(F0.5
F-1.0471975803375244
tp1064
a(F0.5
F-1.0471975803375244
tp1065
a(F0.5
F1.0471975803375244
tp1066
a(F0.5
F1.0471975803375244
tp1067
a(F0.5
F1.0471975803375244
tp1068
a(F0.5
F-1.0471975803375244
tp1069
a(F0.0
F0.0
tp1070
a(F0.5
F1.0471975803375244
tp1071
a(F0.5
F1.0471975803375244
tp1072
a(F0.5
F1.0471975803375244
tp1073
a(F0.5
F1.0471975803375244
tp1074
a(F0.5
F1.0471975803375244
tp1075
a(F0.5
F-1.0471975803375244
tp1076
a(F0.5
F-1.0471975803375244
tp1077
a(F0.5
F-1.0471975803375244
tp1078
a(F0.5
F-1.0471975803375244
tp1079
a(F0.5
F-1.046970009803772
tp1080
a(F0.5
F1.0471975803375244
tp1081
a(F0.5
F-0.09617453068494797
tp1082
a(F0.5
F-0.09617453068494797
tp1083
a(F0.5
F-1.0471975803375244
tp1084
a(F0.5
F1.0471975803375244
tp1085
a(F0.5
F1.0471975803375244
tp1086
a(F0.5
F1.0284048318862915
tp1087
a(F0.5
F-1.0471975803375244
tp1088
a(F0.5
F1.0471974611282349
tp1089
a(F0.5
F1.0471975803375244
tp1090
a(F0.5
F1.0471975803375244
tp1091
a(F0.0
F0.0
tp1092
a(F0.0
F0.0
tp1093
a(F0.0
F0.0
tp1094
a(F0.5
F1.0471975803375244
tp1095
a(F0.5
F1.0471975803375244
tp1096
a(F0.5
F1.0471975803375244
tp1097
a(F0.5
F1.0471975803375244
tp1098
a(F0.5
F1.0471975803375244
tp1099
a(F0.5
F1.0471975803375244
tp1100
a(F0.5
F1.0471975803375244
tp1101
a(F0.5
F1.0471975803375244
tp1102
a(F0.5
F1.0471975803375244
tp1103
a(F0.0
F0.0
tp1104
a(F0.0
F0.0
tp1105
a(F0.0
F0.0
tp1106
a(F0.0
F0.0
tp1107
a(F0.0
F0.0
tp1108
a(F0.0
F0.0
tp1109
a(F0.5
F-1.0471975803375244
tp1110
a(F0.0
F0.0
tp1111
a(F0.5
F1.0471975803375244
tp1112
a(F0.5
F1.0471975803375244
tp1113
a(F0.5
F1.0471975803375244
tp1114
a(F0.5
F-1.0471975803375244
tp1115
a(F0.5
F-1.0471975803375244
tp1116
a(F0.5
F-1.0471975803375244
tp1117
a(F0.5
F-1.0471975803375244
tp1118
a(F0.5
F-1.0471975803375244
tp1119
a(F0.5
F-1.0471975803375244
tp1120
a(F0.5
F1.0471975803375244
tp1121
a(F0.5
F-1.0471851825714111
tp1122
a(F0.5
F-1.0471975803375244
tp1123
a(F0.5
F1.0471975803375244
tp1124
a(F0.5
F1.0471975803375244
tp1125
a(F0.5
F1.0471975803375244
tp1126
a(F0.5
F-1.0471975803375244
tp1127
a(F0.5
F-1.0471975803375244
tp1128
a(F0.0
F0.0
tp1129
a(F0.5
F-1.0471975803375244
tp1130
a(F0.5
F-1.0471975803375244
tp1131
a(F0.5
F-1.0471975803375244
tp1132
a(F0.5
F-1.0471975803375244
tp1133
a(F0.5
F-1.0471975803375244
tp1134
a(F0.5
F1.0471975803375244
tp1135
a(F0.5
F1.0471975803375244
tp1136
a(F0.5
F-1.0471975803375244
tp1137
a(F0.5
F-1.0471975803375244
tp1138
a(F0.5
F-1.0471975803375244
tp1139
a(F0.5
F-1.0471975803375244
tp1140
a(F0.5
F-1.0471975803375244
tp1141
a(F0.5
F1.0471975803375244
tp1142
a(F0.5
F1.0471975803375244
tp1143
a(F0.5
F-1.0471975803375244
tp1144
a(F0.0
F0.0
tp1145
a(F0.0
F0.0
tp1146
a(F0.5
F-1.0471975803375244
tp1147
a(F0.5
F-1.0471975803375244
tp1148
a(F0.5
F-1.0471975803375244
tp1149
a(F0.5
F-1.0471975803375244
tp1150
a(F0.5
F-1.0471975803375244
tp1151
a(F0.5
F-1.0471975803375244
tp1152
a(F0.0
F0.0
tp1153
a(F0.0
F0.0
tp1154
a(F0.0
F0.0
tp1155
a(F0.0
F0.0
tp1156
a(F0.0
F0.0
tp1157
a(F0.5
F1.0471975803375244
tp1158
a(F0.0
F0.0
tp1159
a(F0.5
F-1.0471975803375244
tp1160
a(F0.5
F1.0471975803375244
tp1161
a(F0.5
F1.0471975803375244
tp1162
a(F0.0
F0.0
tp1163
a(F0.0
F0.0
tp1164
a(F0.0
F0.0
tp1165
a(F0.5
F1.0471975803375244
tp1166
a(F0.5
F1.0471975803375244
tp1167
a(F0.5
F1.0471975803375244
tp1168
a(F0.5
F1.0471975803375244
tp1169
a(F0.5
F1.0471975803375244
tp1170
a(F0.0
F0.0
tp1171
a(F0.0
F0.0
tp1172
a(F0.0
F0.0
tp1173
a(F0.0
F0.0
tp1174
a(F0.0
F0.0
tp1175
a(F0.5
F1.0471975803375244
tp1176
a(F0.5
F1.0471975803375244
tp1177
a(F0.5
F1.0471975803375244
tp1178
a(F0.0
F0.0
tp1179
a(F0.0
F0.0
tp1180
a(F0.5
F1.0471975803375244
tp1181
a(F0.5
F1.0471975803375244
tp1182
a(F0.5
F1.0471975803375244
tp1183
a(F0.5
F1.0471975803375244
tp1184
a(F0.5
F1.0471975803375244
tp1185
a(F0.5
F1.0471975803375244
tp1186
a(F0.5
F1.0471975803375244
tp1187
a(F0.5
F1.0471975803375244
tp1188
a(F0.5
F1.0471975803375244
tp1189
a(F0.5
F1.0471975803375244
tp1190
a(F0.5
F-1.0471975803375244
tp1191
a(F0.5
F-1.0471975803375244
tp1192
a(F0.5
F-1.0471975803375244
tp1193
a(F0.5
F1.0471975803375244
tp1194
a(F0.5
F-1.0471975803375244
tp1195
a(F0.5
F-1.0471975803375244
tp1196
a(F0.5
F-1.0471975803375244
tp1197
a(F0.0
F0.0
tp1198
a(F0.0
F0.0
tp1199
a(F0.0
F0.0
tp1200
a(F0.0
F0.0
tp1201
a(F0.5
F1.0471975803375244
tp1202
a(F0.5
F1.0471975803375244
tp1203
a(F0.5
F1.0471975803375244
tp1204
a(F0.5
F1.0471975803375244
tp1205
a(F0.5
F1.0471975803375244
tp1206
a(F0.0
F0.0
tp1207
a(F0.0
F0.0
tp1208
a(F0.0
F0.0
tp1209
a(F0.0
F0.0
tp1210
a(F0.5
F1.0471975803375244
tp1211
a(F0.5
F1.0471975803375244
tp1212
a(F0.5
F1.0471975803375244
tp1213
a(F0.5
F1.0471975803375244
tp1214
a(F0.5
F1.0471975803375244
tp1215
a(F0.5
F1.0471975803375244
tp1216
a(F0.5
F1.0471975803375244
tp1217
a(F0.5
F1.0471975803375244
tp1218
a(F0.5
F1.0471975803375244
tp1219
a(F0.5
F1.0471975803375244
tp1220
a(F0.5
F1.0471975803375244
tp1221
a(F0.5
F1.0471975803375244
tp1222
a(F0.5
F1.0471975803375244
tp1223
a(F0.5
F1.0471975803375244
tp1224
a(F0.5
F-1.0471975803375244
tp1225
a(F0.5
F1.0471975803375244
tp1226
a(F0.5
F-1.0471975803375244
tp1227
a(F0.5
F-1.0471975803375244
tp1228
a(F0.5
F-1.0471975803375244
tp1229
a(F0.5
F-1.0471975803375244
tp1230
a(F0.5
F1.0471975803375244
tp1231
a(F0.5
F1.0471975803375244
tp1232
a(F0.5
F1.0471975803375244
tp1233
a(F0.5
F1.0471975803375244
tp1234
a(F0.5
F1.0471975803375244
tp1235
a(F0.5
F-1.0471975803375244
tp1236
a(F0.5
F1.0471975803375244
tp1237
a(F0.5
F1.0471975803375244
tp1238
a(F0.5
F-1.0471975803375244
tp1239
a(F0.5
F-1.0471975803375244
tp1240
a(F0.5
F1.0471975803375244
tp1241
a(F0.5
F-1.0471975803375244
tp1242
a(F0.5
F-1.0471975803375244
tp1243
a(F0.5
F1.0471975803375244
tp1244
a(F0.5
F1.0471975803375244
tp1245
a(F0.5
F-1.0471975803375244
tp1246
a(F0.5
F-1.0471975803375244
tp1247
a(F0.5
F-1.0471975803375244
tp1248
a(F0.5
F1.0471975803375244
tp1249
a(F0.5
F-1.0471975803375244
tp1250
a(F0.5
F-1.0471975803375244
tp1251
a(F0.5
F-1.0471975803375244
tp1252
a(F0.5
F-1.0471975803375244
tp1253
a(F0.5
F-1.0471975803375244
tp1254
a(F0.5
F1.0471975803375244
tp1255
a(F0.5
F1.0471975803375244
tp1256
a(F0.5
F-1.0471975803375244
tp1257
a(F0.5
F-1.0471975803375244
tp1258
a(F0.5
F-1.0471975803375244
tp1259
a(F0.5
F1.0471975803375244
tp1260
a(F0.0
F0.0
tp1261
a(F0.0
F0.0
tp1262
a(F0.5
F1.0471975803375244
tp1263
a(F0.0
F0.0
tp1264
a(F0.5
F1.0471975803375244
tp1265
a(F0.5
F1.0471975803375244
tp1266
a(F0.5
F1.0471975803375244
tp1267
a(F0.5
F1.0471975803375244
tp1268
a(F0.5
F1.0471975803375244
tp1269
a(F0.5
F1.0471975803375244
tp1270
a(F0.5
F1.0471975803375244
tp1271
a(F0.0
F0.0
tp1272
a(F0.0
F0.0
tp1273
a(F0.0
F0.0
tp1274
a(F0.0
F0.0
tp1275
a(F0.0
F0.0
tp1276
a(F0.0
F0.0
tp1277
a(F0.0
F0.0
tp1278
a(F0.5
F1.0471975803375244
tp1279
a(F0.0
F0.0
tp1280
a(F0.5
F-1.0471975803375244
tp1281
a(F0.5
F-1.0471975803375244
tp1282
a(F0.5
F-1.0471975803375244
tp1283
a(F0.5
F1.0447005033493042
tp1284
a(F0.5
F1.0471975803375244
tp1285
a(F0.0
F0.0
tp1286
a(F0.5
F-1.0471975803375244
tp1287
a(F0.5
F-1.0471975803375244
tp1288
a(F0.5
F-1.0471975803375244
tp1289
a(F0.5
F-1.0471975803375244
tp1290
a(F0.5
F-1.0471975803375244
tp1291
a(F0.5
F1.0471975803375244
tp1292
a(F0.5
F1.0471975803375244
tp1293
a(F0.5
F-1.0471975803375244
tp1294
a(F0.5
F-1.0471975803375244
tp1295
a(F0.5
F-1.0471975803375244
tp1296
a(F0.5
F-1.0471975803375244
tp1297
a(F0.5
F1.0471975803375244
tp1298
a(F0.5
F-1.0471975803375244
tp1299
a(F0.5
F-1.0471975803375244
tp1300
a(F0.5
F-1.0443872213363647
tp1301
a(F0.5
F1.0471975803375244
tp1302
a(F0.5
F1.0471975803375244
tp1303
a(F0.5
F1.0471975803375244
tp1304
a(F0.5
F1.0471975803375244
tp1305
a(F0.5
F1.0471975803375244
tp1306
a(F0.5
F1.0471975803375244
tp1307
a(F0.5
F1.0471975803375244
tp1308
a(F0.0
F0.0
tp1309
a(F0.0
F0.0
tp1310
a(F0.0
F0.0
tp1311
a(F0.5
F1.0471975803375244
tp1312
a(F0.5
F1.0471975803375244
tp1313
a(F0.5
F1.0471975803375244
tp1314
a(F0.5
F1.0471975803375244
tp1315
a(F0.5
F1.0471975803375244
tp1316
a(F0.5
F1.0471975803375244
tp1317
a(F0.5
F1.0471975803375244
tp1318
a(F0.5
F1.0471975803375244
tp1319
a(F0.5
F1.0471975803375244
tp1320
a(F0.5
F1.0471975803375244
tp1321
a(F0.0
F0.0
tp1322
a(F0.0
F0.0
tp1323
a(F0.0
F0.0
tp1324
a(F0.0
F0.0
tp1325
a(F0.5
F1.0471975803375244
tp1326
a(F0.5
F1.0471975803375244
tp1327
a(F0.0
F0.0
tp1328
a(F0.5
F1.0471975803375244
tp1329
a(F0.5
F1.0471975803375244
tp1330
a(F0.5
F1.0471975803375244
tp1331
a(F0.5
F1.0471975803375244
tp1332
a(F0.5
F1.0471975803375244
tp1333
a(F0.5
F-1.0471975803375244
tp1334
a(F0.5
F-1.0471975803375244
tp1335
a(F0.5
F-1.0471975803375244
tp1336
a(F0.5
F-1.0471975803375244
tp1337
a(F0.5
F1.0471975803375244
tp1338
a(F0.5
F1.0471975803375244
tp1339
a(F0.5
F1.0471975803375244
tp1340
a(F0.5
F-1.0471975803375244
tp1341
a(F0.5
F-1.0471975803375244
tp1342
a(F0.0
F0.0
tp1343
a(F0.5
F1.0471975803375244
tp1344
a(F0.5
F1.0471975803375244
tp1345
a(F0.5
F1.0471975803375244
tp1346
a(F0.5
F1.0471975803375244
tp1347
a(F0.5
F1.0471975803375244
tp1348
a(F0.5
F-1.0471975803375244
tp1349
a(F0.0
F0.0
tp1350
a(F0.5
F1.0471975803375244
tp1351
a(F0.5
F-1.0471975803375244
tp1352
a(F0.5
F-1.0471975803375244
tp1353
a(F0.5
F-1.0471975803375244
tp1354
a(F0.5
F1.0471805334091187
tp1355
a(F0.5
F1.0471975803375244
tp1356
a(F0.5
F-1.0471975803375244
tp1357
a(F0.5
F-1.0471975803375244
tp1358
a(F0.5
F-1.0471975803375244
tp1359
a(F0.5
F-1.0471975803375244
tp1360
a(F0.5
F-1.0471975803375244
tp1361
a(F0.5
F-1.0471975803375244
tp1362
a(F0.5
F-1.0471975803375244
tp1363
a(F0.5
F-1.0471975803375244
tp1364
a(F0.5
F-1.0471961498260498
tp1365
a(F0.0
F0.0
tp1366
a(F0.0
F0.0
tp1367
a(F0.0
F0.0
tp1368
a(F0.5
F1.0471975803375244
tp1369
a(F0.5
F1.0471975803375244
tp1370
a(F0.5
F1.0471975803375244
tp1371
a(F0.5
F1.0471975803375244
tp1372
a(F0.5
F1.0471975803375244
tp1373
a(F0.5
F1.0471975803375244
tp1374
a(F0.5
F1.0471975803375244
tp1375
a(F0.5
F1.0471975803375244
tp1376
a(F0.5
F1.0471975803375244
tp1377
a(F0.5
F1.0471975803375244
tp1378
a(F0.0
F0.0
tp1379
a(F0.0
F0.0
tp1380
a(F0.0
F0.0
tp1381
a(F0.0
F0.0
tp1382
a(F0.0
F0.0
tp1383
a(F0.5
F-1.0471975803375244
tp1384
a(F0.5
F-1.0471975803375244
tp1385
a(F0.5
F-1.0471975803375244
tp1386
a(F0.0
F0.0
tp1387
a(F0.0
F0.0
tp1388
a(F0.0
F0.0
tp1389
a(F0.0
F0.0
tp1390
a(F0.5
F1.0471975803375244
tp1391
a(F0.5
F1.0471975803375244
tp1392
a(F0.5
F1.0471975803375244
tp1393
a(F0.5
F1.0471975803375244
tp1394
a(F0.5
F1.0471975803375244
tp1395
a(F0.5
F1.0471975803375244
tp1396
a(F0.5
F1.0471975803375244
tp1397
a(F0.0
F0.0
tp1398
a(F0.0
F0.0
tp1399
a(F0.0
F0.0
tp1400
a(F0.0
F0.0
tp1401
a(F0.0
F0.0
tp1402
a(F0.0
F0.0
tp1403
a(F0.0
F0.0
tp1404
a(F0.0
F0.0
tp1405
a(F0.5
F-1.0471975803375244
tp1406
a(F0.0
F0.0
tp1407
a(F0.5
F-1.0471975803375244
tp1408
a(F0.5
F1.0471975803375244
tp1409
a(F0.5
F-1.0471975803375244
tp1410
a(F0.5
F-1.0471975803375244
tp1411
a(F0.5
F-1.0471975803375244
tp1412
a(F0.5
F1.0471975803375244
tp1413
a(F0.5
F1.0471975803375244
tp1414
a(F0.5
F-1.0471975803375244
tp1415
a(F0.5
F-1.0471975803375244
tp1416
a(F0.5
F1.0471975803375244
tp1417
a(F0.5
F1.0471975803375244
tp1418
a(F0.5
F1.0471975803375244
tp1419
a(F0.5
F1.0471975803375244
tp1420
a(F0.5
F-1.0471975803375244
tp1421
a(F0.5
F1.0471975803375244
tp1422
a(F0.5
F-1.0471975803375244
tp1423
a(F0.5
F1.0471975803375244
tp1424
a(F0.5
F-0.763356626033783
tp1425
a(F0.5
F1.0471975803375244
tp1426
a(F0.5
F1.0471975803375244
tp1427
a(F0.5
F1.0471975803375244
tp1428
a(F0.0
F0.0
tp1429
a(F0.0
F0.0
tp1430
a(F0.0
F0.0
tp1431
a(F0.5
F1.0471975803375244
tp1432
a(F0.5
F-1.0471975803375244
tp1433
a(F0.5
F1.0471975803375244
tp1434
a(F0.5
F1.0471975803375244
tp1435
a(F0.5
F1.0471975803375244
tp1436
a(F0.5
F1.0471975803375244
tp1437
a(F0.5
F1.0471975803375244
tp1438
a(F0.5
F1.0471975803375244
tp1439
a(F0.5
F1.0471975803375244
tp1440
a(F0.0
F0.0
tp1441
a(F0.0
F0.0
tp1442
a(F0.0
F0.0
tp1443
a(F0.5
F1.0471975803375244
tp1444
a(F0.5
F1.0471975803375244
tp1445
a(F0.5
F1.0471975803375244
tp1446
a(F0.0
F0.0
tp1447
a(F0.0
F0.0
tp1448
a(F0.0
F0.0
tp1449
a(F0.0
F0.0
tp1450
a(F0.0
F0.0
tp1451
a(F0.0
F0.0
tp1452
a(F0.0
F0.0
tp1453
a(F0.0
F0.0
tp1454
a(F0.0
F0.0
tp1455
a(F0.0
F0.0
tp1456
a(F0.0
F0.0
tp1457
a(F0.0
F0.0
tp1458
a(F0.0
F0.0
tp1459
a(F0.0
F0.0
tp1460
a(F0.0
F0.0
tp1461
a(F0.0
F0.0
tp1462
a(F0.5
F1.0471975803375244
tp1463
a(F0.0
F0.0
tp1464
a(F0.5
F-1.0471975803375244
tp1465
a(F0.5
F-1.0471975803375244
tp1466
a(F0.5
F-1.0471975803375244
tp1467
a(F0.5
F-1.0471975803375244
tp1468
a(F0.0
F0.0
tp1469
a(F0.0
F0.0
tp1470
a(F0.0
F0.0
tp1471
a(F0.0
F0.0
tp1472
a(F0.5
F1.0471975803375244
tp1473
a(F0.5
F1.0471975803375244
tp1474
a(F0.5
F1.0471975803375244
tp1475
a(F0.5
F1.0471975803375244
tp1476
a(F0.5
F1.0471975803375244
tp1477
a(F0.5
F1.0471975803375244
tp1478
a(F0.5
F1.0471975803375244
tp1479
a(F0.5
F1.0471975803375244
tp1480
a(F0.5
F1.0471975803375244
tp1481
a(F0.5
F1.0471975803375244
tp1482
a(F0.5
F1.0471975803375244
tp1483
a(F0.5
F1.0471975803375244
tp1484
a(F0.5
F1.0471975803375244
tp1485
a(F0.5
F1.0471975803375244
tp1486
a(F0.5
F1.0471975803375244
tp1487
a(F0.0
F0.0
tp1488
a(F0.5
F1.0471975803375244
tp1489
a(F0.5
F1.0471975803375244
tp1490
a(F0.5
F1.0471975803375244
tp1491
a(F0.5
F1.0471975803375244
tp1492
a(F0.5
F-1.0471975803375244
tp1493
a(F0.5
F-1.0471975803375244
tp1494
a(F0.5
F-1.0471975803375244
tp1495
a(F0.5
F-1.0471975803375244
tp1496
a(F0.5
F-1.0471975803375244
tp1497
a(F0.5
F1.0471975803375244
tp1498
a(F0.5
F1.0471975803375244
tp1499
a(F0.5
F-1.0471975803375244
tp1500
a(F0.5
F-1.0471975803375244
tp1501
a(F0.5
F-1.0471975803375244
tp1502
a(F0.5
F-1.0471975803375244
tp1503
a(F0.5
F-1.0471975803375244
tp1504
a(F0.5
F1.0471975803375244
tp1505
a(F0.5
F1.0471975803375244
tp1506
a(F0.5
F-1.0471975803375244
tp1507
a(F0.5
F1.0471975803375244
tp1508
a(F0.5
F-1.0471975803375244
tp1509
a(F0.5
F1.0471975803375244
tp1510
a(F0.5
F-1.0471975803375244
tp1511
a(F0.0
F0.0
tp1512
a(F0.5
F1.0471975803375244
tp1513
a(F0.0
F0.0
tp1514
a(F0.0
F0.0
tp1515
a(F0.5
F1.0471975803375244
tp1516
a(F0.5
F1.0471975803375244
tp1517
a(F0.5
F1.0471975803375244
tp1518
a(F0.5
F1.0471975803375244
tp1519
a(F0.5
F1.0471975803375244
tp1520
a(F0.5
F1.0471975803375244
tp1521
a(F0.0
F0.0
tp1522
a(F0.0
F0.0
tp1523
a(F0.0
F0.0
tp1524
a(F0.0
F0.0
tp1525
a(F0.0
F0.0
tp1526
a(F0.0
F0.0
tp1527
a(F0.0
F0.0
tp1528
a(F0.5
F1.0471975803375244
tp1529
a(F0.0
F0.0
tp1530
a(F0.5
F1.0471975803375244
tp1531
a(F0.5
F-1.0471975803375244
tp1532
a(F0.5
F-1.0471975803375244
tp1533
a(F0.0
F0.0
tp1534
a(F0.5
F1.0471975803375244
tp1535
a(F0.5
F1.0471975803375244
tp1536
a(F0.5
F1.0471975803375244
tp1537
a(F0.0
F0.0
tp1538
a(F0.0
F0.0
tp1539
a(F0.0
F0.0
tp1540
a(F0.0
F0.0
tp1541
a(F0.0
F0.0
tp1542
a(F0.0
F0.0
tp1543
a(F0.0
F0.0
tp1544
a(F0.0
F0.0
tp1545
a(F0.0
F0.0
tp1546
a(F0.0
F0.0
tp1547
a(F0.5
F1.0471975803375244
tp1548
a(F0.5
F-1.0471975803375244
tp1549
a(F0.5
F1.0471975803375244
tp1550
a(F0.5
F1.0471975803375244
tp1551
a(F0.0
F0.0
tp1552
a(F0.0
F0.0
tp1553
a(F0.0
F0.0
tp1554
a(F0.0
F0.0
tp1555
a(F0.5
F-1.0471975803375244
tp1556
a(F0.0
F0.0
tp1557
a(F0.0
F0.0
tp1558
a(F0.0
F0.0
tp1559
a(F0.5
F1.0471975803375244
tp1560
a(F0.0
F0.0
tp1561
a(F0.0
F0.0
tp1562
a(F0.5
F-1.0471975803375244
tp1563
a(F0.0
F0.0
tp1564
a(F0.5
F-1.0471975803375244
tp1565
a(F0.0
F0.0
tp1566
a(F0.0
F0.0
tp1567
a(F0.0
F0.0
tp1568
a(F0.0
F0.0
tp1569
a(F0.0
F0.0
tp1570
a(F0.0
F0.0
tp1571
a(F0.0
F0.0
tp1572
a(F0.5
F1.0471975803375244
tp1573
a(F0.5
F1.0471975803375244
tp1574
a(F0.5
F1.0471975803375244
tp1575
a(F0.5
F1.0471975803375244
tp1576
a(F0.5
F-1.0471975803375244
tp1577
a(F0.5
F-1.0471975803375244
tp1578
a(F0.5
F-1.0471975803375244
tp1579
a(F0.0
F0.0
tp1580
a(F0.5
F-1.0471975803375244
tp1581
a(F0.5
F-1.0471975803375244
tp1582
a(F0.5
F-1.0471975803375244
tp1583
a(F0.5
F1.0471975803375244
tp1584
a(F0.5
F1.0471975803375244
tp1585
a(F0.5
F-1.0471975803375244
tp1586
a(F0.5
F1.0471975803375244
tp1587
a(F0.5
F1.0471975803375244
tp1588
a(F0.5
F1.047196626663208
tp1589
a(F0.0
F0.0
tp1590
a(F0.0
F0.0
tp1591
a(F0.5
F1.0471975803375244
tp1592
a(F0.5
F1.0471975803375244
tp1593
a(F0.5
F1.0471975803375244
tp1594
a(F0.5
F1.0471975803375244
tp1595
a(F0.5
F1.0471975803375244
tp1596
a(F0.5
F1.0471975803375244
tp1597
a(F0.5
F1.0471975803375244
tp1598
a(F0.5
F1.0471975803375244
tp1599
a(F0.0
F0.0
tp1600
a(F0.0
F0.0
tp1601
a(F0.0
F0.0
tp1602
a(F0.0
F0.0
tp1603
a(F0.0
F0.0
tp1604
a(F0.0
F0.0
tp1605
a(F0.5
F-1.0471975803375244
tp1606
a(F0.0
F0.0
tp1607
a(F0.0
F0.0
tp1608
a(F0.5
F-1.0471975803375244
tp1609
a(F0.0
F0.0
tp1610
a(F0.5
F-1.0471975803375244
tp1611
a(F0.0
F0.0
tp1612
a(F0.5
F1.0471975803375244
tp1613
a(F0.5
F1.0471975803375244
tp1614
a(F0.5
F1.0471975803375244
tp1615
a(F0.5
F-1.0471975803375244
tp1616
a(F0.5
F-1.0471975803375244
tp1617
a(F0.5
F-1.0471975803375244
tp1618
a(F0.5
F1.0471975803375244
tp1619
a(F0.5
F1.0471975803375244
tp1620
a(F0.0
F0.0
tp1621
a(F0.5
F1.0471975803375244
tp1622
a(F0.5
F-1.0471975803375244
tp1623
a(F0.5
F1.0471975803375244
tp1624
a(F0.5
F-1.0471975803375244
tp1625
a(F0.5
F1.0471975803375244
tp1626
a(F0.5
F1.0471975803375244
tp1627
a(F0.0
F0.0
tp1628
a(F0.0
F0.0
tp1629
a(F0.0
F0.0
tp1630
a(F0.5
F1.0471975803375244
tp1631
a(F0.0
F0.0
tp1632
a(F0.5
F1.0471975803375244
tp1633
a(F0.5
F1.0471975803375244
tp1634
a(F0.5
F1.0471975803375244
tp1635
a(F0.5
F1.0471975803375244
tp1636
a(F0.5
F1.0471975803375244
tp1637
a(F0.5
F1.0471975803375244
tp1638
a(F0.5
F-1.0471975803375244
tp1639
a(F0.5
F-1.0471975803375244
tp1640
a(F0.0
F0.0
tp1641
a(F0.0
F0.0
tp1642
a(F0.0
F0.0
tp1643
a(F0.0
F0.0
tp1644
a(F0.0
F0.0
tp1645
a(F0.0
F0.0
tp1646
a(F0.0
F0.0
tp1647
a(F0.0
F0.0
tp1648
a(F0.5
F-1.0471975803375244
tp1649
a(F0.0
F0.0
tp1650
a(F0.0
F0.0
tp1651
a(F0.0
F0.0
tp1652
a(F0.0
F0.0
tp1653
a(F0.0
F0.0
tp1654
a(F0.5
F-1.0471975803375244
tp1655
a(F0.5
F1.0471975803375244
tp1656
a(F0.5
F1.0471975803375244
tp1657
a(F0.5
F-1.0471975803375244
tp1658
a(F0.5
F-1.0471975803375244
tp1659
a(F0.5
F-1.0471975803375244
tp1660
a(F0.5
F1.0471975803375244
tp1661
a(F0.5
F1.0471975803375244
tp1662
a(F0.5
F-1.0471975803375244
tp1663
a(F0.5
F-1.0471975803375244
tp1664
a(F0.5
F-1.0471975803375244
tp1665
a(F0.5
F-1.0471975803375244
tp1666
a(F0.5
F-1.0471975803375244
tp1667
a(F0.5
F1.0471975803375244
tp1668
a(F0.5
F1.0471975803375244
tp1669
a(F0.0
F0.0
tp1670
a(F0.0
F0.0
tp1671
a(F0.0
F0.0
tp1672
a(F0.0
F0.0
tp1673
a(F0.0
F0.0
tp1674
a(F0.0
F0.0
tp1675
a(F0.0
F0.0
tp1676
a(F0.0
F0.0
tp1677
a(F0.0
F0.0
tp1678
a(F0.5
F-1.0471975803375244
tp1679
a(F0.5
F1.0471975803375244
tp1680
a(F0.5
F1.0471975803375244
tp1681
a(F0.0
F0.0
tp1682
a(F0.5
F-1.0471975803375244
tp1683
a(F0.5
F-1.0471975803375244
tp1684
a(F0.5
F-1.0471975803375244
tp1685
a(F0.5
F1.0471975803375244
tp1686
a(F0.5
F1.0471975803375244
tp1687
a(F0.5
F1.0471975803375244
tp1688
a(F0.5
F-1.0471975803375244
tp1689
a(F0.5
F-1.0471975803375244
tp1690
a(F0.5
F-1.0471975803375244
tp1691
a(F0.5
F1.0471975803375244
tp1692
a(F0.5
F-1.0471975803375244
tp1693
a(F0.0
F0.0
tp1694
a(F0.5
F1.0471975803375244
tp1695
a(F0.5
F-1.0471975803375244
tp1696
a(F0.5
F1.0471975803375244
tp1697
a(F0.0
F0.0
tp1698
a(F0.0
F0.0
tp1699
a(F0.5
F1.0471975803375244
tp1700
a(F0.5
F1.0471975803375244
tp1701
a(F0.5
F-1.0471975803375244
tp1702
a(F0.5
F-1.0471975803375244
tp1703
a(F0.5
F-1.0471975803375244
tp1704
a(F0.5
F-1.0471975803375244
tp1705
a(F0.5
F-1.0471975803375244
tp1706
a(F0.0
F0.0
tp1707
a(F0.5
F1.0471975803375244
tp1708
a(F0.5
F-1.0471975803375244
tp1709
a(F0.0
F0.0
tp1710
a(F0.5
F-1.0471975803375244
tp1711
a(F0.5
F1.0471975803375244
tp1712
a(F0.5
F1.0471975803375244
tp1713
a(F0.5
F1.0471975803375244
tp1714
a(F0.5
F1.046999454498291
tp1715
a(F0.5
F-1.0471975803375244
tp1716
a(F0.5
F-1.0471975803375244
tp1717
a(F0.5
F-1.0471595525741577
tp1718
a(F0.5
F1.0471975803375244
tp1719
a(F0.5
F1.0471975803375244
tp1720
a(F0.0
F0.0
tp1721
a(F0.0
F0.0
tp1722
a(F0.5
F1.0471975803375244
tp1723
a(F0.5
F1.0471975803375244
tp1724
a(F0.5
F1.0471856594085693
tp1725
a(F0.5
F1.0471975803375244
tp1726
a(F0.5
F1.0471707582473755
tp1727
a(F0.5
F-1.0471974611282349
tp1728
a(F0.5
F1.0471975803375244
tp1729
a(F0.0
F0.0
tp1730
a(F0.0
F0.0
tp1731
a(F0.0
F0.0
tp1732
a(F0.5
F1.0471975803375244
tp1733
a(F0.5
F1.0471975803375244
tp1734
a(F0.5
F1.0471975803375244
tp1735
a(F0.5
F1.0471975803375244
tp1736
a(F0.5
F1.0471975803375244
tp1737
a(F0.5
F1.0471975803375244
tp1738
a(F0.5
F1.0471975803375244
tp1739
a(F0.5
F1.0471975803375244
tp1740
a(F0.5
F1.0471975803375244
tp1741
a(F0.5
F1.0471975803375244
tp1742
a(F0.5
F1.0471975803375244
tp1743
a(F0.0
F0.0
tp1744
a(F0.0
F0.0
tp1745
a(F0.0
F0.0
tp1746
a(F0.0
F0.0
tp1747
a(F0.0
F0.0
tp1748
a(F0.0
F0.0
tp1749
a(F0.5
F-1.0471975803375244
tp1750
a(F0.5
F-1.0471975803375244
tp1751
a(F0.0
F0.0
tp1752
a(F0.5
F1.0471975803375244
tp1753
a(F0.5
F1.0471975803375244
tp1754
a(F0.5
F-1.0471975803375244
tp1755
a(F0.5
F-1.0471975803375244
tp1756
a(F0.5
F-1.0471975803375244
tp1757
a(F0.5
F-1.046298623085022
tp1758
a(F0.5
F1.0471975803375244
tp1759
a(F0.5
F-1.0471975803375244
tp1760
a(F0.5
F1.0471975803375244
tp1761
a(F0.5
F-1.0471975803375244
tp1762
a(F0.5
F-1.0471975803375244
tp1763
a(F0.5
F1.0471975803375244
tp1764
a(F0.5
F1.0471975803375244
tp1765
a(F0.0
F0.0
tp1766
a(F0.5
F1.0471975803375244
tp1767
a(F0.0
F0.0
tp1768
a(F0.5
F-1.0471975803375244
tp1769
a(F0.5
F-1.0471975803375244
tp1770
a(F0.5
F-1.0471975803375244
tp1771
a(F0.5
F0.9288569092750549
tp1772
a(F0.5
F1.0471975803375244
tp1773
a(F0.5
F1.0471975803375244
tp1774
a(F0.5
F1.0471975803375244
tp1775
a(F0.0
F0.0
tp1776
a(F0.0
F0.0
tp1777
a(F0.0
F0.0
tp1778
a(F0.5
F1.0471975803375244
tp1779
a(F0.5
F1.0471975803375244
tp1780
a(F0.5
F1.0471975803375244
tp1781
a(F0.5
F1.0471975803375244
tp1782
a(F0.5
F1.0471975803375244
tp1783
a(F0.5
F1.0471975803375244
tp1784
a(F0.5
F1.0471975803375244
tp1785
a(F0.5
F1.0471975803375244
tp1786
a(F0.5
F1.0471975803375244
tp1787
a(F0.0
F0.0
tp1788
a(F0.0
F0.0
tp1789
a(F0.0
F0.0
tp1790
a(F0.0
F0.0
tp1791
a(F0.0
F0.0
tp1792
a(F0.0
F0.0
tp1793
a(F0.5
F1.0471975803375244
tp1794
a(F0.5
F1.0471975803375244
tp1795
a(F0.5
F1.0471975803375244
tp1796
a(F0.5
F1.0471975803375244
tp1797
a(F0.5
F1.0471975803375244
tp1798
a(F0.5
F1.0471975803375244
tp1799
a(F0.5
F1.0471975803375244
tp1800
a(F0.5
F-1.0471975803375244
tp1801
a(F0.5
F-1.0471975803375244
tp1802
a(F0.5
F-1.0471975803375244
tp1803
a(F0.5
F1.0471975803375244
tp1804
a(F0.5
F1.0471975803375244
tp1805
a(F0.5
F-1.0471975803375244
tp1806
a(F0.5
F-1.0471975803375244
tp1807
a(F0.5
F-1.0471975803375244
tp1808
a(F0.5
F-1.0471975803375244
tp1809
a(F0.5
F-1.0471975803375244
tp1810
a(F0.5
F1.0471975803375244
tp1811
a(F0.5
F-1.0471975803375244
tp1812
a(F0.5
F-1.0471975803375244
tp1813
a(F0.5
F1.0471975803375244
tp1814
a(F0.0
F0.0
tp1815
a(F0.5
F-1.0471975803375244
tp1816
a(F0.5
F-1.0471975803375244
tp1817
a(F0.5
F1.0471975803375244
tp1818
a(F0.5
F1.0471975803375244
tp1819
a(F0.5
F1.0471975803375244
tp1820
a(F0.5
F1.0471975803375244
tp1821
a(F0.5
F-1.0471975803375244
tp1822
a(F0.5
F-1.0471975803375244
tp1823
a(F0.5
F1.0471975803375244
tp1824
a(F0.5
F1.0471975803375244
tp1825
a(F0.5
F-1.0471975803375244
tp1826
a(F0.5
F-1.0471975803375244
tp1827
a(F0.5
F-1.0471975803375244
tp1828
a(F0.5
F-1.0471975803375244
tp1829
a(F0.5
F-1.0471973419189453
tp1830
a(F0.5
F1.0471975803375244
tp1831
a(F0.5
F1.0471975803375244
tp1832
a(F0.0
F0.0
tp1833
a(F0.0
F0.0
tp1834
a(F0.5
F-1.0471975803375244
tp1835
a(F0.5
F-1.0471975803375244
tp1836
a(F0.5
F1.0471975803375244
tp1837
a(F0.5
F1.0471975803375244
tp1838
a(F0.5
F-1.0471975803375244
tp1839
a(F0.5
F-1.0471975803375244
tp1840
a(F0.5
F-1.0471975803375244
tp1841
a(F0.5
F1.0471975803375244
tp1842
a(F0.5
F1.0471975803375244
tp1843
a(F0.5
F1.0471975803375244
tp1844
a(F0.0
F0.0
tp1845
a(F0.0
F0.0
tp1846
a(F0.0
F0.0
tp1847
a(F0.0
F0.0
tp1848
a(F0.0
F0.0
tp1849
a(F0.5
F-1.0471975803375244
tp1850
a(F0.5
F-1.0471975803375244
tp1851
a(F0.5
F-1.0471975803375244
tp1852
a(F0.5
F-1.0471975803375244
tp1853
a(F0.5
F-1.0471975803375244
tp1854
a(F0.5
F-1.0471975803375244
tp1855
a(F0.5
F1.0471975803375244
tp1856
a(F0.5
F1.0471975803375244
tp1857
a(F0.5
F-1.0471975803375244
tp1858
a(F0.5
F1.0471975803375244
tp1859
a(F0.5
F-1.0471975803375244
tp1860
a(F0.5
F-1.0471975803375244
tp1861
a(F0.5
F1.0471975803375244
tp1862
a(F0.5
F1.0471975803375244
tp1863
a(F0.5
F-1.0471975803375244
tp1864
a(F0.5
F-1.0471975803375244
tp1865
a(F0.5
F-1.0471975803375244
tp1866
a(F0.5
F1.0471975803375244
tp1867
a(F0.5
F1.0123310089111328
tp1868
a(F0.5
F-1.0471975803375244
tp1869
a(F0.5
F-1.0471975803375244
tp1870
a(F0.5
F1.0471975803375244
tp1871
a(F0.5
F1.0471975803375244
tp1872
a(F0.5
F1.0471975803375244
tp1873
a(F0.0
F0.0
tp1874
a(F0.0
F0.0
tp1875
a(F0.5
F1.0471975803375244
tp1876
a(F0.5
F1.0471975803375244
tp1877
a(F0.0
F0.0
tp1878
a(F0.0
F0.0
tp1879
a(F0.0
F0.0
tp1880
a(F0.0
F0.0
tp1881
a(F0.0
F0.0
tp1882
a(F0.5
F1.0471975803375244
tp1883
a(F0.0
F0.0
tp1884
a(F0.5
F-1.0471975803375244
tp1885
a(F0.5
F-1.0471975803375244
tp1886
a(F0.5
F-1.0471975803375244
tp1887
a(F0.5
F-1.0471975803375244
tp1888
a(F0.5
F-1.0471975803375244
tp1889
a(F0.0
F0.0
tp1890
a(F0.5
F1.0471975803375244
tp1891
a(F0.5
F1.0471975803375244
tp1892
a(F0.5
F-1.0471975803375244
tp1893
a(F0.5
F1.0471866130828857
tp1894
a(F0.5
F-1.0471975803375244
tp1895
a(F0.5
F1.0471975803375244
tp1896
a(F0.5
F1.0471975803375244
tp1897
a(F0.5
F-1.0471975803375244
tp1898
a(F0.5
F1.0330071449279785
tp1899
a(F0.5
F-1.0471973419189453
tp1900
a(F0.5
F1.0471975803375244
tp1901
a(F0.5
F1.0471975803375244
tp1902
a(F0.5
F-1.0471975803375244
tp1903
a(F0.5
F1.0471975803375244
tp1904
a(F0.5
F-1.0471975803375244
tp1905
a(F0.5
F-1.0471975803375244
tp1906
a(F0.0
F0.0
tp1907
a(F0.0
F0.0
tp1908
a(F0.0
F0.0
tp1909
a(F0.5
F-1.0471975803375244
tp1910
a(F0.5
F-1.0471975803375244
tp1911
a(F0.5
F-1.0471975803375244
tp1912
a(F0.5
F-1.0471975803375244
tp1913
a(F0.5
F-1.0471975803375244
tp1914
a(F0.5
F-1.0471975803375244
tp1915
a(F0.5
F-1.0471975803375244
tp1916
a(F0.5
F-1.0471975803375244
tp1917
a(F0.5
F1.0471975803375244
tp1918
a(F0.0
F0.0
tp1919
a(F0.0
F0.0
tp1920
a(F0.0
F0.0
tp1921
a(F0.0
F0.0
tp1922
a(F0.0
F0.0
tp1923
a(F0.0
F0.0
tp1924
a(F0.0
F0.0
tp1925
a(F0.0
F0.0
tp1926
a(F0.5
F-1.0471975803375244
tp1927
a(F0.5
F-1.0471975803375244
tp1928
a(F0.5
F1.0471975803375244
tp1929
a(F0.5
F1.0471975803375244
tp1930
a(F0.5
F1.0471975803375244
tp1931
a(F0.5
F-1.0471975803375244
tp1932
a(F0.0
F0.0
tp1933
a(F0.0
F0.0
tp1934
a(F0.0
F0.0
tp1935
a(F0.0
F0.0
tp1936
a(F0.0
F0.0
tp1937
a(F0.5
F-1.0471975803375244
tp1938
a(F0.5
F-1.0471975803375244
tp1939
a(F0.5
F-1.0471975803375244
tp1940
a(F0.5
F1.0471975803375244
tp1941
a(F0.5
F1.0471975803375244
tp1942
a(F0.5
F-1.0471975803375244
tp1943
a(F0.5
F-1.0471975803375244
tp1944
a(F0.5
F-1.0471975803375244
tp1945
a(F0.5
F-1.0471975803375244
tp1946
a(F0.5
F1.0471975803375244
tp1947
a(F0.5
F-1.0471975803375244
tp1948
a(F0.5
F1.0471975803375244
tp1949
a(F0.5
F1.0471975803375244
tp1950
a(F0.5
F-1.0471975803375244
tp1951
a(F0.5
F-1.0471975803375244
tp1952
a(F0.5
F-1.0471975803375244
tp1953
a(F0.5
F1.0471975803375244
tp1954
a(F0.5
F-1.0471975803375244
tp1955
a(F0.5
F1.0471975803375244
tp1956
a(F0.5
F-1.0471975803375244
tp1957
a(F0.5
F-1.0471975803375244
tp1958
a(F0.5
F1.0471975803375244
tp1959
a(F0.5
F1.0471975803375244
tp1960
a(F0.5
F0.2610533833503723
tp1961
a(F0.5
F-1.0471975803375244
tp1962
a(F0.5
F1.0471975803375244
tp1963
a(F0.5
F1.0471975803375244
tp1964
a(F0.5
F1.0471975803375244
tp1965
a(F0.0
F0.0
tp1966
a(F0.0
F0.0
tp1967
a(F0.5
F1.0471975803375244
tp1968
a(F0.5
F1.0471975803375244
tp1969
a(F0.5
F1.0471975803375244
tp1970
a(F0.5
F1.0471975803375244
tp1971
a(F0.5
F1.0471975803375244
tp1972
a(F0.5
F1.0471975803375244
tp1973
a(F0.5
F1.0471975803375244
tp1974
a(F0.5
F1.0471975803375244
tp1975
a(F0.5
F1.0471975803375244
tp1976
a(F0.5
F1.0471975803375244
tp1977
a(F0.5
F1.0471975803375244
tp1978
a(F0.0
F0.0
tp1979
a(F0.0
F0.0
tp1980
a(F0.0
F0.0
tp1981
a(F0.0
F0.0
tp1982
a(F0.5
F1.0471975803375244
tp1983
a(F0.0
F0.0
tp1984
a(F0.5
F1.0471975803375244
tp1985
a(F0.5
F1.0471975803375244
tp1986
a(F0.5
F1.0471975803375244
tp1987
a(F0.5
F1.0471975803375244
tp1988
a(F0.5
F1.0471975803375244
tp1989
a(F0.5
F1.0471975803375244
tp1990
a(F0.5
F-1.0471975803375244
tp1991
a(F0.5
F-1.0471975803375244
tp1992
a(F0.5
F-1.0471975803375244
tp1993
a(F0.5
F1.0471975803375244
tp1994
a(F0.5
F-1.0471975803375244
tp1995
a(F0.5
F-1.0471975803375244
tp1996
a(F0.5
F1.0471975803375244
tp1997
a(F0.5
F1.0471975803375244
tp1998
a(F0.5
F1.0471975803375244
tp1999
a(F0.5
F1.0471975803375244
tp2000
a(F0.5
F1.0471975803375244
tp2001
a(F0.5
F-1.0471975803375244
tp2002
a(F0.5
F1.0471975803375244
tp2003
a(F0.5
F1.0471975803375244
tp2004
a(F0.5
F-1.0471975803375244
tp2005
a(F0.5
F-1.0471975803375244
tp2006
a(F0.5
F-1.0471975803375244
tp2007
a(F0.5
F-1.0471975803375244
tp2008
a(F0.5
F1.0471975803375244
tp2009
a(F0.5
F1.0471975803375244
tp2010
a(F0.5
F-1.0471975803375244
tp2011
a(F0.5
F-1.0471975803375244
tp2012
a(F0.5
F-1.0471975803375244
tp2013
a(F0.5
F1.0471975803375244
tp2014
a(F0.5
F-1.0471975803375244
tp2015
a(F0.5
F-1.0471975803375244
tp2016
a(F0.5
F-1.0471975803375244
tp2017
a(F0.5
F-1.0471975803375244
tp2018
a(F0.5
F-1.0471975803375244
tp2019
a(F0.5
F-1.0471975803375244
tp2020
a(F0.5
F1.0471975803375244
tp2021
a(F0.0
F0.0
tp2022
a(F0.5
F1.0471975803375244
tp2023
a(F0.0
F0.0
tp2024
a(F0.0
F0.0
tp2025
a(F0.5
F-1.0471975803375244
tp2026
a(F0.5
F1.0471975803375244
tp2027
a(F0.5
F1.0471975803375244
tp2028
a(F0.0
F0.0
tp2029
a(F0.0
F0.0
tp2030
a(F0.0
F0.0
tp2031
a(F0.0
F0.0
tp2032
a(F0.0
F0.0
tp2033
a(F0.0
F0.0
tp2034
a(F0.0
F0.0
tp2035
a(F0.5
F-1.0471975803375244
tp2036
a(F0.5
F1.0471975803375244
tp2037
a(F0.5
F1.0471975803375244
tp2038
a(F0.5
F-1.0471913814544678
tp2039
a(F0.5
F1.0471975803375244
tp2040
a(F0.0
F0.0
tp2041
a(F0.0
F0.0
tp2042
a(F0.0
F0.0
tp2043
a(F0.5
F1.0471975803375244
tp2044
a(F0.5
F1.0471975803375244
tp2045
a(F0.5
F1.0471975803375244
tp2046
a(F0.5
F1.0471975803375244
tp2047
a(F0.5
F1.0471975803375244
tp2048
a(F0.5
F1.0471975803375244
tp2049
a(F0.5
F1.0471975803375244
tp2050
a(F0.5
F1.0471975803375244
tp2051
a(F0.0
F0.0
tp2052
a(F0.0
F0.0
tp2053
a(F0.0
F0.0
tp2054
a(F0.0
F0.0
tp2055
a(F0.0
F0.0
tp2056
a(F0.0
F0.0
tp2057
a(F0.0
F0.0
tp2058
a(F0.5
F-1.0471975803375244
tp2059
a(F0.5
F-1.0471975803375244
tp2060
a(F0.5
F-1.0471975803375244
tp2061
a(F0.5
F-1.0471975803375244
tp2062
a(F0.5
F1.0471975803375244
tp2063
a(F0.5
F1.0471975803375244
tp2064
a(F0.5
F-1.0471975803375244
tp2065
a(F0.5
F-1.0471975803375244
tp2066
a(F0.5
F1.0471975803375244
tp2067
a(F0.5
F1.0471975803375244
tp2068
a(F0.5
F-1.0471975803375244
tp2069
a(F0.5
F1.0471975803375244
tp2070
a(F0.5
F-1.0471975803375244
tp2071
a(F0.5
F1.0471975803375244
tp2072
a(F0.5
F1.0471975803375244
tp2073
a(F0.5
F-1.0471975803375244
tp2074
a(F0.5
F1.0471975803375244
tp2075
a(F0.5
F1.0471975803375244
tp2076
a(F0.5
F-1.0471975803375244
tp2077
a(F0.5
F1.0471975803375244
tp2078
a(F0.5
F-1.0471975803375244
tp2079
a(F0.5
F1.0471975803375244
tp2080
a(F0.0
F0.0
tp2081
a(F0.5
F1.0467259883880615
tp2082
a(F0.5
F-1.0471975803375244
tp2083
a(F0.5
F-1.0471975803375244
tp2084
a(F0.5
F-1.0471975803375244
tp2085
a(F0.5
F-1.0471975803375244
tp2086
a(F0.5
F-1.0471975803375244
tp2087
a(F0.5
F1.0471975803375244
tp2088
a(F0.5
F1.0471975803375244
tp2089
a(F0.5
F1.0471975803375244
tp2090
a(F0.5
F-1.0471975803375244
tp2091
a(F0.5
F1.0471975803375244
tp2092
a(F0.5
F1.0471975803375244
tp2093
a(F0.5
F1.0471975803375244
tp2094
a(F0.0
F0.0
tp2095
a(F0.0
F0.0
tp2096
a(F0.5
F1.0471975803375244
tp2097
a(F0.5
F1.0471975803375244
tp2098
a(F0.5
F1.0471975803375244
tp2099
a(F0.5
F1.0471975803375244
tp2100
a(F0.5
F1.0471975803375244
tp2101
a(F0.5
F1.0471975803375244
tp2102
a(F0.5
F1.0471975803375244
tp2103
a(F0.5
F1.0471975803375244
tp2104
a(F0.5
F1.0471975803375244
tp2105
a(F0.5
F1.0471975803375244
tp2106
a(F0.0
F0.0
tp2107
a(F0.0
F0.0
tp2108
a(F0.0
F0.0
tp2109
a(F0.0
F0.0
tp2110
a(F0.0
F0.0
tp2111
a(F0.0
F0.0
tp2112
a(F0.5
F1.0471975803375244
tp2113
a(F0.0
F0.0
tp2114
a(F0.5
F1.0471975803375244
tp2115
a(F0.5
F1.0471975803375244
tp2116
a(F0.5
F1.0471975803375244
tp2117
a(F0.5
F1.0471975803375244
tp2118
a(F0.5
F1.0471975803375244
tp2119
a(F0.5
F-1.0471975803375244
tp2120
a(F0.5
F-1.0471975803375244
tp2121
a(F0.5
F-1.0471975803375244
tp2122
a(F0.5
F-1.0471975803375244
tp2123
a(F0.5
F-1.0471975803375244
tp2124
a(F0.5
F1.0471975803375244
tp2125
a(F0.5
F1.0471975803375244
tp2126
a(F0.5
F-1.0471975803375244
tp2127
a(F0.5
F-1.0471975803375244
tp2128
a(F0.5
F-1.0471975803375244
tp2129
a(F0.0
F0.0
tp2130
a(F0.5
F-1.0471975803375244
tp2131
a(F0.5
F-1.0471975803375244
tp2132
a(F0.5
F1.0471975803375244
tp2133
a(F0.5
F1.0471975803375244
tp2134
a(F0.5
F1.0471975803375244
tp2135
a(F0.5
F-1.0471975803375244
tp2136
a(F0.0
F0.0
tp2137
a(F0.5
F1.0471975803375244
tp2138
a(F0.5
F1.0471975803375244
tp2139
a(F0.5
F-1.0471975803375244
tp2140
a(F0.5
F1.0471975803375244
tp2141
a(F0.5
F1.0471975803375244
tp2142
a(F0.5
F-0.06069279462099075
tp2143
a(F0.5
F-1.0449583530426025
tp2144
a(F0.5
F1.0471975803375244
tp2145
a(F0.5
F1.0471975803375244
tp2146
a(F0.5
F-1.0471975803375244
tp2147
a(F0.5
F-1.0471975803375244
tp2148
a(F0.5
F1.0471975803375244
tp2149
a(F0.5
F1.0471975803375244
tp2150
a(F0.5
F-1.0471975803375244
tp2151
a(F0.5
F-1.0471975803375244
tp2152
a(F0.5
F-1.0471975803375244
tp2153
a(F0.5
F1.0471975803375244
tp2154
a(F0.5
F1.0471618175506592
tp2155
a(F0.5
F-1.0471975803375244
tp2156
a(F0.5
F1.0457383394241333
tp2157
a(F0.5
F-1.0471975803375244
tp2158
a(F0.5
F1.0471975803375244
tp2159
a(F0.5
F0.7420597076416016
tp2160
a(F0.5
F1.0471975803375244
tp2161
a(F0.5
F-1.0471975803375244
tp2162
a(F0.0
F0.0
tp2163
a(F0.0
F0.0
tp2164
a(F0.0
F0.0
tp2165
a(F0.5
F1.0471975803375244
tp2166
a(F0.0
F0.0
tp2167
a(F0.5
F1.0471975803375244
tp2168
a(F0.0
F0.0
tp2169
a(F0.0
F0.0
tp2170
a(F0.0
F0.0
tp2171
a(F0.0
F0.0
tp2172
a(F0.0
F0.0
tp2173
a(F0.0
F0.0
tp2174
a(F0.5
F1.0471975803375244
tp2175
a(F0.0
F0.0
tp2176
a(F0.5
F1.0471975803375244
tp2177
a(F0.5
F1.0471975803375244
tp2178
a(F0.5
F1.0471975803375244
tp2179
a(F0.5
F1.0471975803375244
tp2180
a(F0.5
F1.0471975803375244
tp2181
a(F0.5
F1.0471975803375244
tp2182
a(F0.5
F1.0471975803375244
tp2183
a(F0.5
F1.0471975803375244
tp2184
a(F0.5
F1.0471975803375244
tp2185
a(F0.5
F1.0471975803375244
tp2186
a(F0.5
F-1.0471975803375244
tp2187
a(F0.5
F-1.0471975803375244
tp2188
a(F0.5
F-1.0285979509353638
tp2189
a(F0.5
F1.0471975803375244
tp2190
a(F0.5
F1.0471975803375244
tp2191
a(F0.5
F-1.0471975803375244
tp2192
a(F0.5
F-1.0471975803375244
tp2193
a(F0.5
F-1.0471975803375244
tp2194
a(F0.5
F-1.0471975803375244
tp2195
a(F0.5
F1.0471975803375244
tp2196
a(F0.5
F1.0471975803375244
tp2197
a(F0.5
F-1.0471975803375244
tp2198
a(F0.0
F0.0
tp2199
a(F0.0
F0.0
tp2200
a(F0.5
F1.0471975803375244
tp2201
a(F0.5
F1.0471975803375244
tp2202
a(F0.5
F1.0471975803375244
tp2203
a(F0.5
F1.0471975803375244
tp2204
a(F0.5
F1.0471975803375244
tp2205
a(F0.5
F1.0471975803375244
tp2206
a(F0.5
F1.0471975803375244
tp2207
a(F0.5
F1.0471975803375244
tp2208
a(F0.0
F0.0
tp2209
a(F0.0
F0.0
tp2210
a(F0.0
F0.0
tp2211
a(F0.0
F0.0
tp2212
a(F0.0
F0.0
tp2213
a(F0.0
F0.0
tp2214
a(F0.0
F0.0
tp2215
a(F0.0
F0.0
tp2216
a(F0.5
F1.0471975803375244
tp2217
a(F0.5
F-1.0471975803375244
tp2218
a(F0.5
F-1.0471975803375244
tp2219
a(F0.5
F-1.0471975803375244
tp2220
a(F0.5
F-1.0471975803375244
tp2221
a(F0.5
F1.0471975803375244
tp2222
a(F0.5
F-1.0471975803375244
tp2223
a(F0.0
F0.0
tp2224
a(F0.5
F-1.0471975803375244
tp2225
a(F0.5
F-1.0471975803375244
tp2226
a(F0.5
F1.0471975803375244
tp2227
a(F0.5
F-1.0471975803375244
tp2228
a(F0.0
F0.0
tp2229
a(F0.0
F0.0
tp2230
a(F0.5
F-1.0471975803375244
tp2231
a(F0.0
F0.0
tp2232
a(F0.0
F0.0
tp2233
a(F0.0
F0.0
tp2234
a(F0.0
F0.0
tp2235
a(F0.0
F0.0
tp2236
a(F0.5
F1.0471975803375244
tp2237
a(F0.0
F0.0
tp2238
a(F0.0
F0.0
tp2239
a(F0.0
F0.0
tp2240
a(F0.5
F1.0471975803375244
tp2241
a(F0.5
F1.0471975803375244
tp2242
a(F0.5
F-1.0471975803375244
tp2243
a(F0.5
F-1.0471975803375244
tp2244
a(F0.0
F0.0
tp2245
a(F0.0
F0.0
tp2246
a(F0.0
F0.0
tp2247
a(F0.0
F0.0
tp2248
a(F0.0
F0.0
tp2249
a(F0.0
F0.0
tp2250
a(F0.0
F0.0
tp2251
a(F0.0
F0.0
tp2252
a(F0.0
F0.0
tp2253
a(F0.0
F0.0
tp2254
a(F0.0
F0.0
tp2255
a(F0.0
F0.0
tp2256
a(F0.0
F0.0
tp2257
a(F0.0
F0.0
tp2258
a(F0.0
F0.0
tp2259
a(F0.0
F0.0
tp2260
a(F0.0
F0.0
tp2261
a(F0.0
F0.0
tp2262
a(F0.0
F0.0
tp2263
a(F0.0
F0.0
tp2264
a(F0.0
F0.0
tp2265
a(F0.0
F0.0
tp2266
a(F0.5
F1.0471975803375244
tp2267
a(F0.0
F0.0
tp2268
a(F0.5
F1.0471975803375244
tp2269
a(F0.0
F0.0
tp2270
a(F0.5
F-1.0471975803375244
tp2271
a(F0.0
F0.0
tp2272
a(F0.5
F1.0471975803375244
tp2273
a(F0.5
F1.0471975803375244
tp2274
a(F0.5
F-1.0471975803375244
tp2275
a(F0.5
F-1.0471975803375244
tp2276
a(F0.0
F0.0
tp2277
a(F0.0
F0.0
tp2278
a(F0.0
F0.0
tp2279
a(F0.5
F1.0471975803375244
tp2280
a(F0.0
F0.0
tp2281
a(F0.0
F0.0
tp2282
a(F0.0
F0.0
tp2283
a(F0.0
F0.0
tp2284
a(F0.0
F0.0
tp2285
a(F0.0
F0.0
tp2286
a(F0.5
F1.0471975803375244
tp2287
a(F0.5
F1.0471975803375244
tp2288
a(F0.0
F0.0
tp2289
a(F0.5
F1.0471975803375244
tp2290
a(F0.0
F0.0
tp2291
a(F0.0
F0.0
tp2292
a(F0.5
F1.0471975803375244
tp2293
a(F0.5
F1.0471975803375244
tp2294
a(F0.5
F-1.0471975803375244
tp2295
a(F0.5
F-1.0471975803375244
tp2296
a(F0.5
F-1.0471975803375244
tp2297
a(F0.0
F0.0
tp2298
a(F0.5
F1.0471975803375244
tp2299
a(F0.5
F1.0471975803375244
tp2300
a(F0.5
F-1.0471975803375244
tp2301
a(F0.5
F-1.0471975803375244
tp2302
a(F0.5
F-1.0471975803375244
tp2303
a(F0.5
F-1.0471975803375244
tp2304
a(F0.5
F1.0471975803375244
tp2305
a(F0.5
F-1.0471975803375244
tp2306
a(F0.0
F0.0
tp2307
a(F0.0
F0.0
tp2308
a(F0.0
F0.0
tp2309
a(F0.0
F0.0
tp2310
a(F0.0
F0.0
tp2311
a(F0.0
F0.0
tp2312
a(F0.0
F0.0
tp2313
a(F0.0
F0.0
tp2314
a(F0.0
F0.0
tp2315
a(F0.5
F-1.0471975803375244
tp2316
a(F0.0
F0.0
tp2317
a(F0.0
F0.0
tp2318
a(F0.0
F0.0
tp2319
a(F0.5
F-1.0471975803375244
tp2320
a(F0.5
F1.0471975803375244
tp2321
a(F0.0
F0.0
tp2322
a(F0.5
F-1.0471975803375244
tp2323
a(F0.5
F-1.0471975803375244
tp2324
a(F0.0
F0.0
tp2325
a(F0.5
F-1.0471975803375244
tp2326
a(F0.5
F1.0471975803375244
tp2327
a(F0.5
F1.0471975803375244
tp2328
a(F0.5
F-1.0471975803375244
tp2329
a(F0.5
F-1.0471975803375244
tp2330
a(F0.5
F-1.0471975803375244
tp2331
a(F0.5
F-1.0471975803375244
tp2332
a(F0.0
F0.0
tp2333
a(F0.0
F0.0
tp2334
a(F0.0
F0.0
tp2335
a(F0.0
F0.0
tp2336
a(F0.0
F0.0
tp2337
a(F0.0
F0.0
tp2338
a(F0.0
F0.0
tp2339
a(F0.0
F0.0
tp2340
a(F0.0
F0.0
tp2341
a(F0.5
F1.0471975803375244
tp2342
a(F0.5
F1.0471975803375244
tp2343
a(F0.5
F-1.0471975803375244
tp2344
a(F0.0
F0.0
tp2345
a(F0.0
F0.0
tp2346
a(F0.0
F0.0
tp2347
a(F0.0
F0.0
tp2348
a(F0.0
F0.0
tp2349
a(F0.0
F0.0
tp2350
a(F0.5
F-1.0471975803375244
tp2351
a(F0.5
F-1.0471975803375244
tp2352
a(F0.0
F0.0
tp2353
a(F0.0
F0.0
tp2354
a(F0.0
F0.0
tp2355
a(F0.0
F0.0
tp2356
a(F0.5
F-1.0471975803375244
tp2357
a(F0.5
F-1.0471975803375244
tp2358
a(F0.0
F0.0
tp2359
a(F0.5
F1.0471973419189453
tp2360
a(F0.5
F1.0471975803375244
tp2361
a(F0.5
F1.0471975803375244
tp2362
a(F0.5
F-1.0471975803375244
tp2363
a(F0.5
F-1.0471975803375244
tp2364
a(F0.5
F-1.0471975803375244
tp2365
a(F0.0
F0.0
tp2366
a(F0.0
F0.0
tp2367
a(F0.5
F-1.0471975803375244
tp2368
a(F0.5
F1.0471975803375244
tp2369
a(F0.5
F1.0471975803375244
tp2370
a(F0.5
F-1.0471975803375244
tp2371
a(F0.5
F-1.0471975803375244
tp2372
a(F0.5
F1.0471975803375244
tp2373
a(F0.5
F1.0462422370910645
tp2374
a(F0.5
F-1.0471975803375244
tp2375
a(F0.5
F1.0471975803375244
tp2376
a(F0.5
F-1.0471975803375244
tp2377
a(F0.5
F0.5456950664520264
tp2378
a(F0.0
F0.0
tp2379
a(F0.0
F0.0
tp2380
a(F0.0
F0.0
tp2381
a(F0.0
F0.0
tp2382
a(F0.0
F0.0
tp2383
a(F0.5
F1.0471975803375244
tp2384
a(F0.5
F1.0471975803375244
tp2385
a(F0.5
F1.0471975803375244
tp2386
a(F0.5
F1.0471975803375244
tp2387
a(F0.5
F1.0471975803375244
tp2388
a(F0.5
F1.0471975803375244
tp2389
a(F0.5
F1.0471975803375244
tp2390
a(F0.5
F1.0471975803375244
tp2391
a(F0.5
F1.0471975803375244
tp2392
a(F0.0
F0.0
tp2393
a(F0.0
F0.0
tp2394
a(F0.0
F0.0
tp2395
a(F0.0
F0.0
tp2396
a(F0.5
F1.0471975803375244
tp2397
a(F0.5
F1.0471975803375244
tp2398
a(F0.5
F1.0471975803375244
tp2399
a(F0.5
F1.0471975803375244
tp2400
a(F0.5
F1.0471975803375244
tp2401
a(F0.5
F1.0471975803375244
tp2402
a(F0.5
F1.0471975803375244
tp2403
a(F0.5
F1.0471975803375244
tp2404
a(F0.5
F1.0471975803375244
tp2405
a(F0.5
F-1.0471975803375244
tp2406
a(F0.5
F-1.0471975803375244
tp2407
a(F0.5
F-1.0471975803375244
tp2408
a(F0.5
F-1.0471975803375244
tp2409
a(F0.5
F1.0471975803375244
tp2410
a(F0.5
F1.0471975803375244
tp2411
a(F0.5
F-1.0471975803375244
tp2412
a(F0.5
F-1.0471975803375244
tp2413
a(F0.5
F-1.0471975803375244
tp2414
a(F0.5
F-1.0471975803375244
tp2415
a(F0.5
F-1.0471975803375244
tp2416
a(F0.5
F1.0471975803375244
tp2417
a(F0.5
F-1.0471975803375244
tp2418
a(F0.5
F1.0471975803375244
tp2419
a(F0.5
F-1.0471975803375244
tp2420
a(F0.5
F-1.0471975803375244
tp2421
a(F0.5
F1.0471975803375244
tp2422
a(F0.5
F1.0471975803375244
tp2423
a(F0.5
F1.0471975803375244
tp2424
a(F0.5
F1.0471975803375244
tp2425
a(F0.5
F-1.0471975803375244
tp2426
a(F0.5
F1.0471975803375244
tp2427
a(F0.5
F1.0471975803375244
tp2428
a(F0.5
F-1.0471975803375244
tp2429
a(F0.5
F-1.0471975803375244
tp2430
a(F0.5
F1.0471975803375244
tp2431
a(F0.5
F-1.0471975803375244
tp2432
a(F0.5
F1.0471975803375244
tp2433
a(F0.5
F1.0471975803375244
tp2434
a(F0.5
F-1.0471975803375244
tp2435
a(F0.5
F1.046640157699585
tp2436
a(F0.5
F1.0454649925231934
tp2437
a(F0.5
F-1.0471975803375244
tp2438
a(F0.0
F0.0
tp2439
a(F0.0
F0.0
tp2440
a(F0.5
F1.0471975803375244
tp2441
a(F0.5
F1.0471975803375244
tp2442
a(F0.5
F1.0471975803375244
tp2443
a(F0.5
F1.0471975803375244
tp2444
a(F0.5
F1.0471975803375244
tp2445
a(F0.5
F1.0471975803375244
tp2446
a(F0.5
F1.0471975803375244
tp2447
a(F0.5
F-1.0471975803375244
tp2448
a(F0.5
F-1.0471975803375244
tp2449
a(F0.5
F-1.0471975803375244
tp2450
a(F0.5
F-1.0471975803375244
tp2451
a(F0.0
F0.0
tp2452
a(F0.0
F0.0
tp2453
a(F0.0
F0.0
tp2454
a(F0.0
F0.0
tp2455
a(F0.5
F-1.0471975803375244
tp2456
a(F0.5
F-1.0471975803375244
tp2457
a(F0.5
F-1.0471975803375244
tp2458
a(F0.5
F-1.0471975803375244
tp2459
a(F0.5
F-1.0471975803375244
tp2460
a(F0.5
F-1.0471975803375244
tp2461
a(F0.0
F0.0
tp2462
a(F0.0
F0.0
tp2463
a(F0.0
F0.0
tp2464
a(F0.0
F0.0
tp2465
a(F0.0
F0.0
tp2466
a(F0.0
F0.0
tp2467
a(F0.5
F1.0471975803375244
tp2468
a(F0.5
F1.0471975803375244
tp2469
a(F0.5
F1.0471975803375244
tp2470
a(F0.5
F1.0471975803375244
tp2471
a(F0.5
F-1.0471975803375244
tp2472
a(F0.5
F-1.0471975803375244
tp2473
a(F0.0
F0.0
tp2474
a(F0.0
F0.0
tp2475
a(F0.0
F0.0
tp2476
a(F0.0
F0.0
tp2477
a(F0.5
F1.0471975803375244
tp2478
a(F0.5
F-1.0471975803375244
tp2479
a(F0.5
F-1.0471975803375244
tp2480
a(F0.5
F-1.0471975803375244
tp2481
a(F0.0
F0.0
tp2482
a(F0.0
F0.0
tp2483
a(F0.5
F1.0471975803375244
tp2484
a(F0.5
F-1.0471975803375244
tp2485
a(F0.5
F-1.0471975803375244
tp2486
a(F0.5
F-1.0471975803375244
tp2487
a(F0.0
F0.0
tp2488
a(F0.0
F0.0
tp2489
a(F0.5
F1.0471975803375244
tp2490
a(F0.0
F0.0
tp2491
a(F0.0
F0.0
tp2492
a(F0.0
F0.0
tp2493
a(F0.0
F0.0
tp2494
a(F0.0
F0.0
tp2495
a(F0.0
F0.0
tp2496
a(F0.0
F0.0
tp2497
a(F0.0
F0.0
tp2498
a(F0.5
F1.0471975803375244
tp2499
a(F0.5
F1.0471975803375244
tp2500
a(F0.5
F1.0471975803375244
tp2501
a(F0.5
F1.0471975803375244
tp2502
a(F0.5
F1.0471975803375244
tp2503
a(F0.5
F1.0471975803375244
tp2504
a(F0.5
F1.0471975803375244
tp2505
a(F0.5
F1.0471975803375244
tp2506
a(F0.5
F1.0471975803375244
tp2507
a(F0.5
F1.0471975803375244
tp2508
a(F0.5
F1.0471975803375244
tp2509
a(F0.5
F1.0471975803375244
tp2510
a(F0.5
F-1.0471975803375244
tp2511
a(F0.5
F-1.0471975803375244
tp2512
a(F0.5
F1.0471975803375244
tp2513
a(F0.5
F-1.0471975803375244
tp2514
a(F0.5
F-1.0471975803375244
tp2515
a(F0.5
F1.0471975803375244
tp2516
a(F0.5
F1.0471975803375244
tp2517
a(F0.5
F-1.0471975803375244
tp2518
a(F0.5
F-1.0471975803375244
tp2519
a(F0.5
F-1.0471975803375244
tp2520
a(F0.5
F-1.0471975803375244
tp2521
a(F0.5
F-1.0471975803375244
tp2522
a(F0.5
F1.0471975803375244
tp2523
a(F0.0
F0.0
tp2524
a(F0.5
F1.0471975803375244
tp2525
a(F0.5
F-1.0471975803375244
tp2526
a(F0.0
F0.0
tp2527
a(F0.5
F1.0471975803375244
tp2528
a(F0.5
F1.0471975803375244
tp2529
a(F0.5
F-1.0471975803375244
tp2530
a(F0.5
F1.0471975803375244
tp2531
a(F0.5
F-1.0471975803375244
tp2532
a(F0.5
F1.0471975803375244
tp2533
a(F0.5
F-1.0471975803375244
tp2534
a(F0.5
F1.0471975803375244
tp2535
a(F0.5
F-1.0471055507659912
tp2536
a(F0.5
F-1.0471055507659912
tp2537
a(F0.5
F1.0471975803375244
tp2538
a(F0.5
F1.0471975803375244
tp2539
a(F0.5
F-1.0471975803375244
tp2540
a(F0.5
F-1.0471975803375244
tp2541
a(F0.5
F-1.0471975803375244
tp2542
a(F0.5
F1.0471975803375244
tp2543
a(F0.5
F1.0471975803375244
tp2544
a(F0.5
F1.0471975803375244
tp2545
a(F0.5
F-1.0471975803375244
tp2546
a(F0.5
F-1.0471975803375244
tp2547
a(F0.5
F1.0471975803375244
tp2548
a(F0.5
F-1.0471975803375244
tp2549
a(F0.5
F1.0471975803375244
tp2550
a(F0.5
F-1.0471975803375244
tp2551
a(F0.5
F1.0471975803375244
tp2552
a(F0.5
F-1.0471975803375244
tp2553
a(F0.5
F1.0471975803375244
tp2554
a(F0.5
F-1.0471975803375244
tp2555
a(F0.5
F1.0471975803375244
tp2556
a(F0.5
F-1.0471973419189453
tp2557
a(F0.5
F1.0471975803375244
tp2558
a(F0.0
F0.0
tp2559
a(F0.0
F0.0
tp2560
a(F0.5
F1.0471975803375244
tp2561
a(F0.5
F-1.0471975803375244
tp2562
a(F0.5
F-1.0471975803375244
tp2563
a(F0.5
F1.0471975803375244
tp2564
a(F0.5
F1.0471975803375244
tp2565
a(F0.5
F-1.0471975803375244
tp2566
a(F0.5
F-1.0471975803375244
tp2567
a(F0.5
F1.0471975803375244
tp2568
a(F0.5
F1.0471975803375244
tp2569
a(F0.5
F1.0471975803375244
tp2570
a(F0.5
F1.0471975803375244
tp2571
a(F0.0
F0.0
tp2572
a(F0.0
F0.0
tp2573
a(F0.5
F1.0471975803375244
tp2574
a(F0.5
F1.0471975803375244
tp2575
a(F0.5
F1.0471975803375244
tp2576
a(F0.5
F1.0471975803375244
tp2577
a(F0.5
F1.0471975803375244
tp2578
a(F0.5
F1.0471975803375244
tp2579
a(F0.5
F1.0471975803375244
tp2580
a(F0.5
F1.0471975803375244
tp2581
a(F0.0
F0.0
tp2582
a(F0.0
F0.0
tp2583
a(F0.0
F0.0
tp2584
a(F0.0
F0.0
tp2585
a(F0.0
F0.0
tp2586
a(F0.0
F0.0
tp2587
a(F0.0
F0.0
tp2588
a(F0.0
F0.0
tp2589
a(F0.5
F1.0471975803375244
tp2590
a(F0.5
F-1.0471975803375244
tp2591
a(F0.5
F-1.0471975803375244
tp2592
a(F0.5
F1.0471975803375244
tp2593
a(F0.5
F-1.0471975803375244
tp2594
a(F0.0
F0.0
tp2595
a(F0.0
F0.0
tp2596
a(F0.0
F0.0
tp2597
a(F0.0
F0.0
tp2598
a(F0.0
F0.0
tp2599
a(F0.0
F0.0
tp2600
a(F0.0
F0.0
tp2601
a(F0.0
F0.0
tp2602
a(F0.0
F0.0
tp2603
a(F0.5
F1.0471975803375244
tp2604
a(F0.5
F-1.0471975803375244
tp2605
a(F0.5
F-1.0471975803375244
tp2606
a(F0.5
F-1.0471975803375244
tp2607
a(F0.5
F-1.0471975803375244
tp2608
a(F0.5
F1.0471975803375244
tp2609
a(F0.5
F1.0471975803375244
tp2610
a(F0.5
F-1.0471975803375244
tp2611
a(F0.5
F-1.0471975803375244
tp2612
a(F0.5
F-1.0471975803375244
tp2613
a(F0.5
F-1.0471975803375244
tp2614
a(F0.5
F-1.0471975803375244
tp2615
a(F0.5
F1.0471975803375244
tp2616
a(F0.5
F-1.0471975803375244
tp2617
a(F0.5
F-1.0471975803375244
tp2618
a(F0.5
F1.0471975803375244
tp2619
a(F0.5
F1.0471975803375244
tp2620
a(F0.5
F1.0471975803375244
tp2621
a(F0.5
F-1.0471975803375244
tp2622
a(F0.5
F1.0471975803375244
tp2623
a(F0.5
F1.0471975803375244
tp2624
a(F0.5
F1.0471975803375244
tp2625
a(F0.5
F-1.0471975803375244
tp2626
a(F0.5
F-1.0471975803375244
tp2627
a(F0.5
F1.0471975803375244
tp2628
a(F0.5
F1.0471975803375244
tp2629
a(F0.5
F-1.0471967458724976
tp2630
a(F0.5
F-1.0471967458724976
tp2631
a(F0.5
F1.0471975803375244
tp2632
a(F0.5
F-1.0471975803375244
tp2633
a(F0.5
F-1.0471975803375244
tp2634
a(F0.5
F1.0471973419189453
tp2635
a(F0.5
F-1.0471949577331543
tp2636
a(F0.5
F1.0471975803375244
tp2637
a(F0.5
F1.0471975803375244
tp2638
a(F0.5
F1.0471975803375244
tp2639
a(F0.5
F-1.046589732170105
tp2640
a(F0.5
F1.0471975803375244
tp2641
a(F0.5
F-1.0471975803375244
tp2642
a(F0.5
F1.0471975803375244
tp2643
a(F0.0
F0.0
tp2644
a(F0.0
F0.0
tp2645
a(F0.5
F1.0471975803375244
tp2646
a(F0.5
F1.0471975803375244
tp2647
a(F0.5
F1.0471975803375244
tp2648
a(F0.5
F1.0471975803375244
tp2649
a(F0.5
F1.0471975803375244
tp2650
a(F0.5
F1.0471975803375244
tp2651
a(F0.5
F1.0471975803375244
tp2652
a(F0.5
F1.0471975803375244
tp2653
a(F0.5
F1.0471975803375244
tp2654
a(F0.5
F1.0471975803375244
tp2655
a(F0.5
F1.0471975803375244
tp2656
a(F0.5
F1.0471975803375244
tp2657
a(F0.0
F0.0
tp2658
a(F0.0
F0.0
tp2659
a(F0.0
F0.0
tp2660
a(F0.5
F-1.0471975803375244
tp2661
a(F0.5
F-1.0471975803375244
tp2662
a(F0.0
F0.0
tp2663
a(F0.5
F1.0471975803375244
tp2664
a(F0.5
F1.0471975803375244
tp2665
a(F0.5
F-1.0471975803375244
tp2666
a(F0.5
F1.0471975803375244
tp2667
a(F0.5
F1.0471975803375244
tp2668
a(F0.5
F1.0469657182693481
tp2669
a(F0.0
F0.0
tp2670
a(F0.0
F0.0
tp2671
a(F0.5
F-1.0471975803375244
tp2672
a(F0.0
F0.0
tp2673
a(F0.0
F0.0
tp2674
a(F0.5
F1.0471975803375244
tp2675
a(F0.5
F-1.0471975803375244
tp2676
a(F0.0
F0.0
tp2677
a(F0.0
F0.0
tp2678
a(F0.0
F0.0
tp2679
a(F0.0
F0.0
tp2680
a(F0.0
F0.0
tp2681
a(F0.0
F0.0
tp2682
a(F0.5
F-1.0471975803375244
tp2683
a(F0.5
F-1.0471975803375244
tp2684
a(F0.5
F-1.0471975803375244
tp2685
a(F0.5
F-1.0471975803375244
tp2686
a(F0.5
F1.0471975803375244
tp2687
a(F0.5
F-1.0471975803375244
tp2688
a(F0.5
F-1.0471975803375244
tp2689
a(F0.5
F-1.0471975803375244
tp2690
a(F0.5
F-1.0471975803375244
tp2691
a(F0.5
F-1.0471975803375244
tp2692
a(F0.5
F-1.0471975803375244
tp2693
a(F0.5
F-1.0471975803375244
tp2694
a(F0.5
F-1.0370359420776367
tp2695
a(F0.5
F-1.0471975803375244
tp2696
a(F0.5
F-1.0471975803375244
tp2697
a(F0.5
F-1.0471975803375244
tp2698
a(F0.5
F-1.0471975803375244
tp2699
a(F0.0
F0.0
tp2700
a(F0.0
F0.0
tp2701
a(F0.5
F1.0471975803375244
tp2702
a(F0.5
F1.0471975803375244
tp2703
a(F0.5
F1.0471975803375244
tp2704
a(F0.5
F-1.0471975803375244
tp2705
a(F0.5
F-1.0471975803375244
tp2706
a(F0.5
F1.0471975803375244
tp2707
a(F0.5
F1.0471975803375244
tp2708
a(F0.5
F1.0471975803375244
tp2709
a(F0.0
F0.0
tp2710
a(F0.0
F0.0
tp2711
a(F0.0
F0.0
tp2712
a(F0.0
F0.0
tp2713
a(F0.0
F0.0
tp2714
a(F0.0
F0.0
tp2715
a(F0.5
F1.0471975803375244
tp2716
a(F0.5
F1.0471975803375244
tp2717
a(F0.5
F1.0471975803375244
tp2718
a(F0.5
F1.0471975803375244
tp2719
a(F0.0
F0.0
tp2720
a(F0.0
F0.0
tp2721
a(F0.0
F0.0
tp2722
a(F0.0
F0.0
tp2723
a(F0.0
F0.0
tp2724
a(F0.0
F0.0
tp2725
a(F0.0
F0.0
tp2726
a(F0.5
F1.0471975803375244
tp2727
a(F0.5
F-1.0471975803375244
tp2728
a(F0.0
F0.0
tp2729
a(F0.0
F0.0
tp2730
a(F0.5
F1.0471975803375244
tp2731
a(F0.5
F-1.0471972227096558
tp2732
a(F0.5
F1.0471975803375244
tp2733
a(F0.5
F-1.0471975803375244
tp2734
a(F0.5
F-1.0471975803375244
tp2735
a(F0.5
F-1.0471975803375244
tp2736
a(F0.0
F0.0
tp2737
a(F0.0
F0.0
tp2738
a(F0.5
F1.0471975803375244
tp2739
a(F0.5
F1.0471975803375244
tp2740
a(F0.5
F1.0471975803375244
tp2741
a(F0.5
F1.0471975803375244
tp2742
a(F0.5
F1.0471975803375244
tp2743
a(F0.5
F1.0471975803375244
tp2744
a(F0.5
F1.0471975803375244
tp2745
a(F0.0
F0.0
tp2746
a(F0.0
F0.0
tp2747
a(F0.0
F0.0
tp2748
a(F0.0
F0.0
tp2749
a(F0.5
F1.0471975803375244
tp2750
a(F0.0
F0.0
tp2751
a(F0.5
F1.0471975803375244
tp2752
a(F0.5
F1.0471975803375244
tp2753
a(F0.5
F-1.0471975803375244
tp2754
a(F0.5
F-1.0471975803375244
tp2755
a(F0.5
F-1.0471975803375244
tp2756
a(F0.5
F1.0471975803375244
tp2757
a(F0.5
F1.0471975803375244
tp2758
a(F0.5
F-1.0471975803375244
tp2759
a(F0.5
F-1.0471975803375244
tp2760
a(F0.5
F1.0471975803375244
tp2761
a(F0.5
F1.0471975803375244
tp2762
a(F0.5
F-1.0471975803375244
tp2763
a(F0.5
F-1.0471975803375244
tp2764
a(F0.5
F1.0471975803375244
tp2765
a(F0.5
F1.0471975803375244
tp2766
a(F0.5
F1.0471975803375244
tp2767
a(F0.0
F0.0
tp2768
a(F0.5
F-1.0471975803375244
tp2769
a(F0.5
F1.0471975803375244
tp2770
a(F0.5
F1.0471975803375244
tp2771
a(F0.5
F1.0471975803375244
tp2772
a(F0.5
F-1.0471975803375244
tp2773
a(F0.5
F1.0471975803375244
tp2774
a(F0.0
F0.0
tp2775
a(F0.0
F0.0
tp2776
a(F0.0
F0.0
tp2777
a(F0.0
F0.0
tp2778
a(F0.5
F-1.0471975803375244
tp2779
a(F0.5
F-1.0471975803375244
tp2780
a(F0.5
F-1.0471975803375244
tp2781
a(F0.5
F-1.0471975803375244
tp2782
a(F0.5
F-1.0471975803375244
tp2783
a(F0.5
F-1.0471975803375244
tp2784
a(F0.5
F-1.0471975803375244
tp2785
a(F0.5
F-1.0471975803375244
tp2786
a(F0.5
F-1.0471975803375244
tp2787
a(F0.0
F0.0
tp2788
a(F0.0
F0.0
tp2789
a(F0.0
F0.0
tp2790
a(F0.0
F0.0
tp2791
a(F0.0
F0.0
tp2792
a(F0.5
F1.0471975803375244
tp2793
a(F0.0
F0.0
tp2794
a(F0.0
F0.0
tp2795
a(F0.0
F0.0
tp2796
a(F0.5
F-1.0471975803375244
tp2797
a(F0.5
F1.0471975803375244
tp2798
a(F0.5
F1.0471975803375244
tp2799
a(F0.5
F1.0471975803375244
tp2800
a(F0.5
F-1.0471975803375244
tp2801
a(F0.5
F-1.0471975803375244
tp2802
a(F0.5
F-1.0471975803375244
tp2803
a(F0.5
F1.0471975803375244
tp2804
a(F0.5
F1.0471975803375244
tp2805
a(F0.5
F1.0471975803375244
tp2806
a(F0.5
F-1.0471975803375244
tp2807
a(F0.0
F0.0
tp2808
a(F0.0
F0.0
tp2809
a(F0.0
F0.0
tp2810
a(F0.0
F0.0
tp2811
a(F0.5
F1.0471975803375244
tp2812
a(F0.5
F1.0471975803375244
tp2813
a(F0.5
F1.0471975803375244
tp2814
a(F0.0
F0.0
tp2815
a(F0.0
F0.0
tp2816
a(F0.0
F0.0
tp2817
a(F0.0
F0.0
tp2818
a(F0.0
F0.0
tp2819
a(F0.0
F0.0
tp2820
a(F0.0
F0.0
tp2821
a(F0.5
F1.0471975803375244
tp2822
a(F0.5
F1.0471975803375244
tp2823
a(F0.5
F1.0471975803375244
tp2824
a(F0.0
F0.0
tp2825
a(F0.5
F1.0471975803375244
tp2826
a(F0.5
F-1.0471975803375244
tp2827
a(F0.5
F-1.0471975803375244
tp2828
a(F0.5
F-1.0471975803375244
tp2829
a(F0.5
F-1.0471975803375244
tp2830
a(F0.5
F-1.0471975803375244
tp2831
a(F0.5
F1.0471975803375244
tp2832
a(F0.5
F-1.0471975803375244
tp2833
a(F0.5
F1.0471975803375244
tp2834
a(F0.5
F-1.0471975803375244
tp2835
a(F0.5
F-1.0471975803375244
tp2836
a(F0.5
F1.0471975803375244
tp2837
a(F0.5
F-1.0471975803375244
tp2838
a(F0.5
F-1.0471975803375244
tp2839
a(F0.5
F1.0471975803375244
tp2840
a(F0.5
F-1.0471975803375244
tp2841
a(F0.5
F-1.0471975803375244
tp2842
a(F0.5
F1.0471975803375244
tp2843
a(F0.5
F1.0471975803375244
tp2844
a(F0.5
F1.0350946187973022
tp2845
a(F0.5
F-1.0471975803375244
tp2846
a(F0.5
F-1.0471975803375244
tp2847
a(F0.5
F1.0471975803375244
tp2848
a(F0.5
F1.0471975803375244
tp2849
a(F0.5
F1.0471975803375244
tp2850
a(F0.5
F1.0471975803375244
tp2851
a(F0.5
F-1.0471975803375244
tp2852
a(F0.5
F-1.0471975803375244
tp2853
a(F0.5
F-1.0471975803375244
tp2854
a(F0.5
F1.0471961498260498
tp2855
a(F0.5
F1.0471973419189453
tp2856
a(F0.5
F1.0471973419189453
tp2857
a(F0.5
F-1.0461984872817993
tp2858
a(F0.5
F1.0471975803375244
tp2859
a(F0.5
F-1.0471975803375244
tp2860
a(F0.5
F1.0471975803375244
tp2861
a(F0.0
F0.0
tp2862
a(F0.0
F0.0
tp2863
a(F0.5
F-1.0471975803375244
tp2864
a(F0.5
F-1.0471975803375244
tp2865
a(F0.5
F-1.0471975803375244
tp2866
a(F0.5
F-1.0471975803375244
tp2867
a(F0.5
F-1.0471975803375244
tp2868
a(F0.5
F-1.0471975803375244
tp2869
a(F0.5
F1.0471975803375244
tp2870
a(F0.5
F1.0471975803375244
tp2871
a(F0.5
F1.0471975803375244
tp2872
a(F0.0
F0.0
tp2873
a(F0.0
F0.0
tp2874
a(F0.0
F0.0
tp2875
a(F0.0
F0.0
tp2876
a(F0.0
F0.0
tp2877
a(F0.5
F1.0471975803375244
tp2878
a(F0.5
F1.0471975803375244
tp2879
a(F0.5
F1.0471975803375244
tp2880
a(F0.5
F1.0471975803375244
tp2881
a(F0.5
F1.0471975803375244
tp2882
a(F0.5
F1.0471975803375244
tp2883
a(F0.5
F1.0471975803375244
tp2884
a(F0.5
F1.0471975803375244
tp2885
a(F0.5
F1.0471975803375244
tp2886
a(F0.5
F1.0471975803375244
tp2887
a(F0.5
F1.0471975803375244
tp2888
a(F0.5
F1.0471975803375244
tp2889
a(F0.5
F1.0471975803375244
tp2890
a(F0.5
F-1.0471975803375244
tp2891
a(F0.5
F-1.0471975803375244
tp2892
a(F0.5
F1.0471975803375244
tp2893
a(F0.5
F-1.0471975803375244
tp2894
a(F0.5
F-1.0471975803375244
tp2895
a(F0.5
F1.0471975803375244
tp2896
a(F0.5
F1.0471975803375244
tp2897
a(F0.5
F-1.0471975803375244
tp2898
a(F0.5
F-1.0471975803375244
tp2899
a(F0.5
F-1.0471975803375244
tp2900
a(F0.5
F-1.0471975803375244
tp2901
a(F0.5
F1.0471975803375244
tp2902
a(F0.5
F1.0471975803375244
tp2903
a(F0.5
F-1.0471975803375244
tp2904
a(F0.5
F-1.0471975803375244
tp2905
a(F0.5
F-1.0471975803375244
tp2906
a(F0.5
F1.0471975803375244
tp2907
a(F0.5
F1.0471975803375244
tp2908
a(F0.5
F1.0471975803375244
tp2909
a(F0.5
F-1.0471975803375244
tp2910
a(F0.5
F0.6174781322479248
tp2911
a(F0.5
F-1.0471975803375244
tp2912
a(F0.5
F1.0471975803375244
tp2913
a(F0.5
F-1.0471975803375244
tp2914
a(F0.5
F1.0471975803375244
tp2915
a(F0.5
F1.0471975803375244
tp2916
a(F0.5
F-1.0471975803375244
tp2917
a(F0.5
F1.0471975803375244
tp2918
a(F0.5
F-1.0471975803375244
tp2919
a(F0.5
F1.0471975803375244
tp2920
a(F0.5
F-1.0471975803375244
tp2921
a(F0.5
F1.0471975803375244
tp2922
a(F0.5
F-1.0471975803375244
tp2923
a(F0.5
F1.0471975803375244
tp2924
a(F0.5
F1.0471975803375244
tp2925
a(F0.5
F1.0471975803375244
tp2926
a(F0.5
F-1.0471975803375244
tp2927
a(F0.5
F1.0471975803375244
tp2928
a(F0.5
F0.2688801884651184
tp2929
a(F0.5
F1.0471975803375244
tp2930
a(F0.5
F-1.0471885204315186
tp2931
a(F0.0
F0.0
tp2932
a(F0.0
F0.0
tp2933
a(F0.5
F-1.0471975803375244
tp2934
a(F0.5
F1.0471975803375244
tp2935
a(F0.5
F-1.0471975803375244
tp2936
a(F0.5
F1.0471975803375244
tp2937
a(F0.5
F-1.0471975803375244
tp2938
a(F0.5
F1.0471975803375244
tp2939
a(F0.5
F-1.0471975803375244
tp2940
a(F0.5
F1.0471975803375244
tp2941
a(F0.5
F1.0471975803375244
tp2942
a(F0.5
F1.0471975803375244
tp2943
a(F0.5
F-1.0471975803375244
tp2944
a(F0.5
F1.0471975803375244
tp2945
a(F0.0
F0.0
tp2946
a(F0.0
F0.0
tp2947
a(F0.0
F0.0
tp2948
a(F0.0
F0.0
tp2949
a(F0.5
F1.0471975803375244
tp2950
a(F0.5
F1.0471975803375244
tp2951
a(F0.5
F1.0471975803375244
tp2952
a(F0.5
F1.0471975803375244
tp2953
a(F0.5
F1.0471975803375244
tp2954
a(F0.5
F1.0471975803375244
tp2955
a(F0.5
F1.0471975803375244
tp2956
a(F0.5
F1.0471975803375244
tp2957
a(F0.5
F1.0471975803375244
tp2958
a(F0.5
F1.0471975803375244
tp2959
a(F0.5
F1.0471975803375244
tp2960
a(F0.5
F1.0471975803375244
tp2961
a(F0.5
F1.0471975803375244
tp2962
a(F0.5
F1.0471975803375244
tp2963
a(F0.5
F-1.0471975803375244
tp2964
a(F0.5
F-1.0471975803375244
tp2965
a(F0.5
F1.0471975803375244
tp2966
a(F0.5
F-1.0471975803375244
tp2967
a(F0.5
F-1.0471975803375244
tp2968
a(F0.5
F1.0471975803375244
tp2969
a(F0.5
F1.0471975803375244
tp2970
a(F0.5
F-1.0471975803375244
tp2971
a(F0.5
F-1.0471975803375244
tp2972
a(F0.5
F-1.0471975803375244
tp2973
a(F0.5
F1.0471975803375244
tp2974
a(F0.5
F1.0471975803375244
tp2975
a(F0.5
F-1.0471975803375244
tp2976
a(F0.5
F-1.0471975803375244
tp2977
a(F0.5
F-1.0471975803375244
tp2978
a(F0.5
F1.0471975803375244
tp2979
a(F0.5
F1.0471975803375244
tp2980
a(F0.5
F-1.0471975803375244
tp2981
a(F0.5
F-1.0471975803375244
tp2982
a(F0.5
F1.0471975803375244
tp2983
a(F0.5
F1.0471975803375244
tp2984
a(F0.5
F-1.0471975803375244
tp2985
a(F0.5
F-1.0471975803375244
tp2986
a(F0.5
F1.0471975803375244
tp2987
a(F0.5
F1.0471975803375244
tp2988
a(F0.5
F1.0385842323303223
tp2989
a(F0.5
F-1.0471975803375244
tp2990
a(F0.5
F-1.0471975803375244
tp2991
a(F0.5
F-0.8760893940925598
tp2992
a(F0.5
F1.0471975803375244
tp2993
a(F0.5
F1.0471975803375244
tp2994
a(F0.5
F1.0471951961517334
tp2995
a(F0.5
F1.0471951961517334
tp2996
a(F0.5
F-1.0471975803375244
tp2997
a(F0.5
F1.0471975803375244
tp2998
a(F0.5
F1.0471973419189453
tp2999
a(F0.5
F-1.0471975803375244
tp3000
a(F0.5
F1.0471975803375244
tp3001
a(F0.5
F-0.9474145770072937
tp3002
a(F0.5
F1.0471975803375244
tp3003
a(F0.5
F-0.13982786238193512
tp3004
a(F0.5
F-0.13982786238193512
tp3005
a(F0.5
F1.0471975803375244
tp3006
a(F0.5
F-1.0471975803375244
tp3007
a(F0.5
F1.0471975803375244
tp3008
a(F0.5
F1.047149896621704
tp3009
a(F0.0
F0.0
tp3010
a(F0.0
F0.0
tp3011
a(F0.5
F1.0471975803375244
tp3012
a(F0.5
F1.0471975803375244
tp3013
a(F0.5
F1.0471975803375244
tp3014
a(F0.5
F1.0471975803375244
tp3015
a(F0.5
F1.0471975803375244
tp3016
a(F0.5
F1.0471975803375244
tp3017
a(F0.5
F1.0471975803375244
tp3018
a(F0.5
F1.0471975803375244
tp3019
a(F0.5
F1.0471975803375244
tp3020
a(F0.5
F1.0471975803375244
tp3021
a(F0.5
F1.0471975803375244
tp3022
a(F0.5
F1.0471975803375244
tp3023
a(F0.0
F0.0
tp3024
a(F0.5
F1.0471975803375244
tp3025
a(F0.0
F0.0
tp3026
a(F0.0
F0.0
tp3027
a(F0.5
F1.0471975803375244
tp3028
a(F0.0
F0.0
tp3029
a(F0.0
F0.0
tp3030
a(F0.5
F1.0471975803375244
tp3031
a(F0.5
F1.0471975803375244
tp3032
a(F0.5
F1.0471975803375244
tp3033
a(F0.5
F1.0471975803375244
tp3034
a(F0.5
F-1.0471975803375244
tp3035
a(F0.5
F-1.0471975803375244
tp3036
a(F0.5
F-1.0471975803375244
tp3037
a(F0.5
F1.0471975803375244
tp3038
a(F0.5
F1.0471975803375244
tp3039
a(F0.5
F-1.0471975803375244
tp3040
a(F0.5
F-1.0471975803375244
tp3041
a(F0.5
F-1.0471975803375244
tp3042
a(F0.5
F-1.0471975803375244
tp3043
a(F0.5
F1.0471975803375244
tp3044
a(F0.5
F-1.0471975803375244
tp3045
a(F0.5
F1.0471947193145752
tp3046
a(F0.5
F-1.0471975803375244
tp3047
a(F0.5
F1.0471975803375244
tp3048
a(F0.5
F-1.0471975803375244
tp3049
a(F0.5
F1.0471975803375244
tp3050
a(F0.5
F1.0471975803375244
tp3051
a(F0.5
F1.0471975803375244
tp3052
a(F0.0
F0.0
tp3053
a(F0.5
F-1.0471975803375244
tp3054
a(F0.5
F-1.0471975803375244
tp3055
a(F0.5
F1.0471975803375244
tp3056
a(F0.5
F1.0471975803375244
tp3057
a(F0.5
F1.0471975803375244
tp3058
a(F0.5
F-1.0471975803375244
tp3059
a(F0.5
F-1.0471975803375244
tp3060
a(F0.5
F-1.0471975803375244
tp3061
a(F0.5
F1.0471975803375244
tp3062
a(F0.5
F1.0471975803375244
tp3063
a(F0.5
F-1.047193169593811
tp3064
a(F0.5
F-1.047193169593811
tp3065
a(F0.5
F1.0471975803375244
tp3066
a(F0.5
F-1.0471975803375244
tp3067
a(F0.5
F-1.0471975803375244
tp3068
a(F0.5
F1.0471975803375244
tp3069
a(F0.5
F-1.0471975803375244
tp3070
a(F0.5
F1.0471975803375244
tp3071
a(F0.0
F0.0
tp3072
a(F0.0
F0.0
tp3073
a(F0.5
F1.0471975803375244
tp3074
a(F0.5
F1.0471975803375244
tp3075
a(F0.5
F-1.0471975803375244
tp3076
a(F0.5
F-1.0471975803375244
tp3077
a(F0.5
F-1.0471975803375244
tp3078
a(F0.5
F1.0471975803375244
tp3079
a(F0.5
F1.0471975803375244
tp3080
a(F0.5
F1.0471975803375244
tp3081
a(F0.5
F1.0471975803375244
tp3082
a(F0.5
F1.0471975803375244
tp3083
a(F0.5
F1.0471975803375244
tp3084
a(F0.0
F0.0
tp3085
a(F0.0
F0.0
tp3086
a(F0.0
F0.0
tp3087
a(F0.5
F1.0471975803375244
tp3088
a(F0.0
F0.0
tp3089
a(F0.5
F1.0471975803375244
tp3090
a(F0.5
F1.0471975803375244
tp3091
a(F0.5
F1.0471975803375244
tp3092
a(F0.5
F1.0471975803375244
tp3093
a(F0.5
F1.0471975803375244
tp3094
a(F0.5
F-1.0471975803375244
tp3095
a(F0.5
F-1.0471975803375244
tp3096
a(F0.0
F0.0
tp3097
a(F0.0
F0.0
tp3098
a(F0.0
F0.0
tp3099
a(F0.5
F-1.0471975803375244
tp3100
a(F0.0
F0.0
tp3101
a(F0.0
F0.0
tp3102
a(F0.5
F1.0471975803375244
tp3103
a(F0.5
F1.0471975803375244
tp3104
a(F0.5
F1.0471975803375244
tp3105
a(F0.5
F1.0471975803375244
tp3106
a(F0.0
F0.0
tp3107
a(F0.5
F1.0471975803375244
tp3108
a(F0.5
F1.0471975803375244
tp3109
a(F0.5
F1.0471975803375244
tp3110
a(F0.5
F1.0471975803375244
tp3111
a(F0.5
F1.0471975803375244
tp3112
a(F0.5
F1.0471975803375244
tp3113
a(F0.0
F0.0
tp3114
a(F0.0
F0.0
tp3115
a(F0.0
F0.0
tp3116
a(F0.0
F0.0
tp3117
a(F0.5
F-1.0471975803375244
tp3118
a(F0.5
F1.0471975803375244
tp3119
a(F0.5
F1.0471975803375244
tp3120
a(F0.5
F1.0471975803375244
tp3121
a(F0.5
F-1.0471975803375244
tp3122
a(F0.5
F-1.0471975803375244
tp3123
a(F0.5
F-1.0471975803375244
tp3124
a(F0.5
F-1.0471975803375244
tp3125
a(F0.5
F-1.0471975803375244
tp3126
a(F0.5
F1.0471975803375244
tp3127
a(F0.5
F1.0471975803375244
tp3128
a(F0.5
F-1.0471975803375244
tp3129
a(F0.5
F-1.0471975803375244
tp3130
a(F0.5
F-1.0471975803375244
tp3131
a(F0.5
F-0.7233608365058899
tp3132
a(F0.5
F1.0471975803375244
tp3133
a(F0.5
F-1.0471975803375244
tp3134
a(F0.5
F1.0471975803375244
tp3135
a(F0.5
F1.0471975803375244
tp3136
a(F0.5
F-1.0471975803375244
tp3137
a(F0.0
F0.0
tp3138
a(F0.0
F0.0
tp3139
a(F0.5
F1.0471975803375244
tp3140
a(F0.5
F1.0471975803375244
tp3141
a(F0.5
F-1.0471975803375244
tp3142
a(F0.5
F-1.0471975803375244
tp3143
a(F0.5
F1.0471975803375244
tp3144
a(F0.5
F-1.0471975803375244
tp3145
a(F0.5
F1.0471975803375244
tp3146
a(F0.5
F1.0471975803375244
tp3147
a(F0.5
F1.0471975803375244
tp3148
a(F0.5
F1.0471975803375244
tp3149
a(F0.5
F1.0471975803375244
tp3150
a(F0.0
F0.0
tp3151
a(F0.0
F0.0
tp3152
a(F0.5
F-1.0471975803375244
tp3153
a(F0.5
F-1.0471975803375244
tp3154
a(F0.5
F-1.0471975803375244
tp3155
a(F0.5
F-1.0471975803375244
tp3156
a(F0.5
F-1.0471975803375244
tp3157
a(F0.0
F0.0
tp3158
a(F0.0
F0.0
tp3159
a(F0.0
F0.0
tp3160
a(F0.0
F0.0
tp3161
a(F0.5
F-1.0471975803375244
tp3162
a(F0.5
F-1.0471975803375244
tp3163
a(F0.5
F-1.0471975803375244
tp3164
a(F0.5
F-1.0471975803375244
tp3165
a(F0.5
F1.0471975803375244
tp3166
a(F0.5
F1.0471975803375244
tp3167
a(F0.5
F1.0471975803375244
tp3168
a(F0.5
F1.0471975803375244
tp3169
a(F0.5
F-1.0471975803375244
tp3170
a(F0.5
F-1.0471975803375244
tp3171
a(F0.5
F1.0471975803375244
tp3172
a(F0.5
F-1.0471960306167603
tp3173
a(F0.5
F1.0471975803375244
tp3174
a(F0.5
F1.0471975803375244
tp3175
a(F0.5
F1.0471975803375244
tp3176
a(F0.5
F1.0471975803375244
tp3177
a(F0.5
F-1.0471975803375244
tp3178
a(F0.5
F-1.0471975803375244
tp3179
a(F0.5
F-1.0471975803375244
tp3180
a(F0.5
F1.0471975803375244
tp3181
a(F0.5
F-1.0471975803375244
tp3182
a(F0.5
F-1.0471975803375244
tp3183
a(F0.5
F1.0471975803375244
tp3184
a(F0.5
F1.0471975803375244
tp3185
a(F0.5
F-1.0064730644226074
tp3186
a(F0.5
F1.0471975803375244
tp3187
a(F0.5
F1.0471975803375244
tp3188
a(F0.5
F1.0471975803375244
tp3189
a(F0.5
F-1.047166109085083
tp3190
a(F0.5
F-1.0471735000610352
tp3191
a(F0.5
F1.0471975803375244
tp3192
a(F0.5
F1.0471975803375244
tp3193
a(F0.5
F1.0471975803375244
tp3194
a(F0.5
F1.0471975803375244
tp3195
a(F0.0
F0.0
tp3196
a(F0.0
F0.0
tp3197
a(F0.0
F0.0
tp3198
a(F0.5
F1.0471975803375244
tp3199
a(F0.5
F1.0471975803375244
tp3200
a(F0.5
F1.0471975803375244
tp3201
a(F0.5
F1.0471975803375244
tp3202
a(F0.5
F1.0471975803375244
tp3203
a(F0.5
F1.0471975803375244
tp3204
a(F0.5
F1.0471975803375244
tp3205
a(F0.5
F1.0471975803375244
tp3206
a(F0.5
F1.0471975803375244
tp3207
a(F0.5
F1.0471975803375244
tp3208
a(F0.0
F0.0
tp3209
a(F0.0
F0.0
tp3210
a(F0.0
F0.0
tp3211
a(F0.0
F0.0
tp3212
a(F0.0
F0.0
tp3213
a(F0.5
F1.0471975803375244
tp3214
a(F0.5
F1.0471975803375244
tp3215
a(F0.5
F1.0471975803375244
tp3216
a(F0.5
F-1.0471975803375244
tp3217
a(F0.5
F-1.0471975803375244
tp3218
a(F0.5
F-1.0471975803375244
tp3219
a(F0.5
F1.0471975803375244
tp3220
a(F0.5
F1.0471975803375244
tp3221
a(F0.5
F-1.0471975803375244
tp3222
a(F0.5
F-1.0471975803375244
tp3223
a(F0.5
F-1.0471975803375244
tp3224
a(F0.5
F-1.0471975803375244
tp3225
a(F0.5
F-1.0471975803375244
tp3226
a(F0.5
F1.0471975803375244
tp3227
a(F0.5
F-1.0471975803375244
tp3228
a(F0.5
F-1.0471975803375244
tp3229
a(F0.5
F1.0471975803375244
tp3230
a(F0.5
F1.0471975803375244
tp3231
a(F0.5
F-1.0471975803375244
tp3232
a(F0.5
F1.0471975803375244
tp3233
a(F0.5
F-1.0471975803375244
tp3234
a(F0.5
F1.047135829925537
tp3235
a(F0.5
F1.0471973419189453
tp3236
a(F0.5
F-1.0471975803375244
tp3237
a(F0.5
F1.0471975803375244
tp3238
a(F0.5
F-1.0471975803375244
tp3239
a(F0.5
F-1.0471975803375244
tp3240
a(F0.5
F-1.0471975803375244
tp3241
a(F0.5
F1.0471975803375244
tp3242
a(F0.5
F-1.0471975803375244
tp3243
a(F0.5
F-1.0471974611282349
tp3244
a(F0.5
F1.0471975803375244
tp3245
a(F0.5
F1.0471975803375244
tp3246
a(F0.5
F1.0471975803375244
tp3247
a(F0.5
F-1.0471975803375244
tp3248
a(F0.5
F1.0471975803375244
tp3249
a(F0.5
F-1.0471975803375244
tp3250
a(F0.0
F0.0
tp3251
a(F0.5
F1.0471975803375244
tp3252
a(F0.5
F-1.0471975803375244
tp3253
a(F0.5
F-1.0471975803375244
tp3254
a(F0.5
F1.0471975803375244
tp3255
a(F0.5
F-1.0471975803375244
tp3256
a(F0.0
F0.0
tp3257
a(F0.0
F0.0
tp3258
a(F0.5
F1.0471975803375244
tp3259
a(F0.5
F1.0471975803375244
tp3260
a(F0.5
F1.0471975803375244
tp3261
a(F0.5
F1.0471975803375244
tp3262
a(F0.5
F1.0471975803375244
tp3263
a(F0.5
F1.0471975803375244
tp3264
a(F0.5
F1.0471975803375244
tp3265
a(F0.5
F1.0471975803375244
tp3266
a(F0.5
F1.0471975803375244
tp3267
a(F0.5
F1.0471975803375244
tp3268
a(F0.5
F1.0471975803375244
tp3269
a(F0.5
F1.0471975803375244
tp3270
a(F0.0
F0.0
tp3271
a(F0.0
F0.0
tp3272
a(F0.0
F0.0
tp3273
a(F0.0
F0.0
tp3274
a(F0.0
F0.0
tp3275
a(F0.0
F0.0
tp3276
a(F0.5
F1.0471975803375244
tp3277
a(F0.5
F1.0471975803375244
tp3278
a(F0.5
F1.0471975803375244
tp3279
a(F0.5
F-1.0471975803375244
tp3280
a(F0.5
F-1.0471975803375244
tp3281
a(F0.5
F-1.0471975803375244
tp3282
a(F0.5
F1.0471975803375244
tp3283
a(F0.5
F1.0471975803375244
tp3284
a(F0.5
F-1.0471975803375244
tp3285
a(F0.5
F-1.0471975803375244
tp3286
a(F0.5
F-1.0471975803375244
tp3287
a(F0.5
F1.0471975803375244
tp3288
a(F0.5
F1.0471975803375244
tp3289
a(F0.5
F-1.0471975803375244
tp3290
a(F0.5
F-1.0471975803375244
tp3291
a(F0.5
F-1.0471975803375244
tp3292
a(F0.0
F0.0
tp3293
a(F0.5
F1.0471975803375244
tp3294
a(F0.5
F1.0471975803375244
tp3295
a(F0.5
F-1.0471975803375244
tp3296
a(F0.5
F1.0471975803375244
tp3297
a(F0.5
F-1.0471975803375244
tp3298
a(F0.5
F-1.0471975803375244
tp3299
a(F0.5
F1.0471975803375244
tp3300
a(F0.5
F-1.0471975803375244
tp3301
a(F0.5
F-1.0471975803375244
tp3302
a(F0.5
F-1.0471975803375244
tp3303
a(F0.0
F0.0
tp3304
a(F0.0
F0.0
tp3305
a(F0.5
F1.0471975803375244
tp3306
a(F0.5
F1.0471975803375244
tp3307
a(F0.5
F1.0471975803375244
tp3308
a(F0.5
F1.0471975803375244
tp3309
a(F0.5
F1.0471975803375244
tp3310
a(F0.5
F1.0471975803375244
tp3311
a(F0.5
F1.0471975803375244
tp3312
a(F0.5
F1.0471975803375244
tp3313
a(F0.5
F-1.0471975803375244
tp3314
a(F0.5
F-1.0471975803375244
tp3315
a(F0.5
F-1.0471975803375244
tp3316
a(F0.5
F-1.0471975803375244
tp3317
a(F0.0
F0.0
tp3318
a(F0.0
F0.0
tp3319
a(F0.0
F0.0
tp3320
a(F0.0
F0.0
tp3321
a(F0.0
F0.0
tp3322
a(F0.5
F-1.0471975803375244
tp3323
a(F0.5
F-1.0471975803375244
tp3324
a(F0.5
F-1.0471975803375244
tp3325
a(F0.5
F-1.047197699546814
tp3326
a(F0.5
F-1.0471975803375244
tp3327
a(F0.5
F1.0471975803375244
tp3328
a(F0.5
F1.0471975803375244
tp3329
a(F0.5
F1.0471975803375244
tp3330
a(F0.5
F1.0471975803375244
tp3331
a(F0.0
F0.0
tp3332
a(F0.0
F0.0
tp3333
a.