(lp0
(F0.0
F0.0
tp1
a(F0.0
F0.0
tp2
a(F0.05000000074505806
F0.5427853465080261
tp3
a(F0.5
F1.0471975803375244
tp4
a(F0.05000000074505806
F0.5572861433029175
tp5
a(F0.4901891052722931
F1.0373866558074951
tp6
a(F0.5
F1.0471975803375244
tp7
a(F0.5
F-0.9025696516036987
tp8
a(F0.20264098048210144
F-1.0471975803375244
tp9
a(F0.5
F1.0471975803375244
tp10
a(F0.05000000074505806
F-1.0471975803375244
tp11
a(F0.5
F1.0471975803375244
tp12
a(F0.42990052700042725
F-1.0471975803375244
tp13
a(F0.5
F1.0471975803375244
tp14
a(F0.05000000074505806
F0.14652574062347412
tp15
a(F0.5
F1.0471975803375244
tp16
a(F0.3346380889415741
F0.8818333148956299
tp17
a(F0.5
F1.0471975803375244
tp18
a(F0.48919424414634705
F-1.0471975803375244
tp19
a(F0.5
F-0.5746947526931763
tp20
a(F0.05000000074505806
F0.2640324831008911
tp21
a(F0.5
F1.0471975803375244
tp22
a(F0.1081116795539856
F0.65530925989151
tp23
a(F0.5
F1.0471975803375244
tp24
a(F0.5
F1.0471975803375244
tp25
a(F0.5
F1.0471975803375244
tp26
a(F0.05000000074505806
F0.6641310453414917
tp27
a(F0.43037769198417664
F1.0471975803375244
tp28
a(F0.05000000074505806
F0.18959259986877441
tp29
a(F0.3640638589859009
F1.0471975803375244
tp30
a(F0.1923702210187912
F1.0471975803375244
tp31
a(F0.0
F0.0
tp32
a(F0.0
F0.0
tp33
a(F0.05000000074505806
F1.0471975803375244
tp34
a(F0.05000000074505806
F1.0471975803375244
tp35
a(F0.05000000074505806
F1.0471975803375244
tp36
a(F0.05000000074505806
F1.0471975803375244
tp37
a(F0.05000000074505806
F1.0471975803375244
tp38
a(F0.05000000074505806
F1.0471975803375244
tp39
a(F0.0
F0.0
tp40
a(F0.05000000074505806
F1.0471975803375244
tp41
a(F0.05000000074505806
F1.0471975803375244
tp42
a(F0.05000000074505806
F1.0471975803375244
tp43
a(F0.0
F0.0
tp44
a(F0.0
F0.0
tp45
a(F0.0
F0.0
tp46
a(F0.0
F0.0
tp47
a(F0.0
F0.0
tp48
a(F0.0
F0.0
tp49
a(F0.0
F0.0
tp50
a(F0.5
F1.0471975803375244
tp51
a(F0.0
F0.0
tp52
a(F0.5
F-1.0471779108047485
tp53
a(F0.5
F-1.0471975803375244
tp54
a(F0.5
F-1.0471975803375244
tp55
a(F0.5
F-1.0471975803375244
tp56
a(F0.5
F1.0471975803375244
tp57
a(F0.5
F1.0471975803375244
tp58
a(F0.5
F1.0471975803375244
tp59
a(F0.5
F1.0471975803375244
tp60
a(F0.5
F1.0471975803375244
tp61
a(F0.5
F-1.0471975803375244
tp62
a(F0.5
F1.0471975803375244
tp63
a(F0.5
F1.0471975803375244
tp64
a(F0.5
F-1.0471975803375244
tp65
a(F0.5
F-1.0471975803375244
tp66
a(F0.5
F1.0338215827941895
tp67
a(F0.5
F1.0471975803375244
tp68
a(F0.5
F1.0471975803375244
tp69
a(F0.5
F-1.0471975803375244
tp70
a(F0.5
F-1.0471975803375244
tp71
a(F0.5
F-1.0471975803375244
tp72
a(F0.5
F-1.0471975803375244
tp73
a(F0.5
F-1.0471975803375244
tp74
a(F0.0
F0.0
tp75
a(F0.0
F0.0
tp76
a(F0.0
F0.0
tp77
a(F0.5
F-1.0469305515289307
tp78
a(F0.5
F0.3763395845890045
tp79
a(F0.5
F-1.0471975803375244
tp80
a(F0.5
F-1.0471858978271484
tp81
a(F0.5
F-0.9130859971046448
tp82
a(F0.5
F-1.0471975803375244
tp83
a(F0.0
F0.0
tp84
a(F0.0
F0.0
tp85
a(F0.05000000074505806
F1.0471975803375244
tp86
a(F0.05000000074505806
F1.0471975803375244
tp87
a(F0.05000000074505806
F1.0471975803375244
tp88
a(F0.05000000074505806
F1.0471975803375244
tp89
a(F0.05000000074505806
F1.0471975803375244
tp90
a(F0.05000000074505806
F1.0471975803375244
tp91
a(F0.05000000074505806
F1.0471975803375244
tp92
a(F0.05000000074505806
F1.0471975803375244
tp93
a(F0.0
F0.0
tp94
a(F0.0
F0.0
tp95
a(F0.0
F0.0
tp96
a(F0.0
F0.0
tp97
a(F0.5
F1.047196865081787
tp98
a(F0.0
F0.0
tp99
a(F0.5
F-1.0471975803375244
tp100
a(F0.5
F-1.0471975803375244
tp101
a(F0.5
F-1.0471975803375244
tp102
a(F0.5
F1.0471975803375244
tp103
a(F0.5
F1.0471975803375244
tp104
a(F0.5
F-1.0471975803375244
tp105
a(F0.5
F-1.0471975803375244
tp106
a(F0.5
F-1.0471975803375244
tp107
a(F0.5
F-1.0471975803375244
tp108
a(F0.5
F1.0471975803375244
tp109
a(F0.5
F1.0471975803375244
tp110
a(F0.5
F1.0471975803375244
tp111
a(F0.5
F1.0471975803375244
tp112
a(F0.5
F-1.0471975803375244
tp113
a(F0.5
F-1.0471975803375244
tp114
a(F0.5
F-1.0471975803375244
tp115
a(F0.5
F-1.0471975803375244
tp116
a(F0.5
F-1.0471975803375244
tp117
a(F0.5
F-1.0471975803375244
tp118
a(F0.5
F-1.0466560125350952
tp119
a(F0.5
F-1.0219899415969849
tp120
a(F0.5
F-1.0471975803375244
tp121
a(F0.5
F1.0412081480026245
tp122
a(F0.0
F0.0
tp123
a(F0.5
F1.0471975803375244
tp124
a(F0.5
F1.0471975803375244
tp125
a(F0.5
F1.0471975803375244
tp126
a(F0.5
F-1.0471975803375244
tp127
a(F0.5
F-1.0471975803375244
tp128
a(F0.5
F-1.0471975803375244
tp129
a(F0.5
F-1.0471975803375244
tp130
a(F0.5
F-1.0471975803375244
tp131
a(F0.5
F-1.0471975803375244
tp132
a(F0.5
F-1.0471975803375244
tp133
a(F0.5
F1.0471975803375244
tp134
a(F0.05000000074505806
F1.0471975803375244
tp135
a(F0.05000000074505806
F1.0471975803375244
tp136
a(F0.05000000074505806
F-1.0471975803375244
tp137
a(F0.49989381432533264
F-1.0471975803375244
tp138
a(F0.5
F-1.0471975803375244
tp139
a(F0.05000000074505806
F1.0470157861709595
tp140
a(F0.05000000074505806
F1.0471975803375244
tp141
a(F0.05000000074505806
F0.919766366481781
tp142
a(F0.05000000074505806
F-1.0471975803375244
tp143
a(F0.05000000074505806
F-1.0471975803375244
tp144
a(F0.05000000074505806
F-1.0471975803375244
tp145
a(F0.05000000074505806
F-1.047196865081787
tp146
a(F0.05000000074505806
F1.0471975803375244
tp147
a(F0.05000000074505806
F1.0471975803375244
tp148
a(F0.05000000074505806
F1.0471975803375244
tp149
a(F0.05000000074505806
F1.0471975803375244
tp150
a(F0.05000000074505806
F1.0471975803375244
tp151
a(F0.05000000074505806
F-1.0471975803375244
tp152
a(F0.05000000074505806
F-1.0471975803375244
tp153
a(F0.13770493865013123
F-1.0471975803375244
tp154
a(F0.05000000074505806
F-1.0471975803375244
tp155
a(F0.05000000074505806
F-1.0278018712997437
tp156
a(F0.05000000074505806
F1.0471975803375244
tp157
a(F0.05000000074505806
F1.0471975803375244
tp158
a(F0.05000000074505806
F1.0471975803375244
tp159
a(F0.05000000074505806
F1.0471975803375244
tp160
a(F0.05000000074505806
F-1.0397775173187256
tp161
a(F0.05000000074505806
F-1.0471975803375244
tp162
a(F0.05000000074505806
F-1.0471974611282349
tp163
a(F0.05000000074505806
F1.0471014976501465
tp164
a(F0.05000000074505806
F1.0471975803375244
tp165
a(F0.05000000074505806
F1.0471969842910767
tp166
a(F0.05000000074505806
F-1.0471975803375244
tp167
a(F0.05000000074505806
F-1.0471975803375244
tp168
a(F0.05000000074505806
F-1.043562889099121
tp169
a(F0.05000000074505806
F1.0471975803375244
tp170
a(F0.05000000074505806
F1.0471975803375244
tp171
a(F0.05000000074505806
F1.0471975803375244
tp172
a(F0.05000000074505806
F1.0471975803375244
tp173
a(F0.05000000074505806
F-1.0471975803375244
tp174
a(F0.05000000074505806
F-1.0471452474594116
tp175
a(F0.05000000074505806
F-1.0471975803375244
tp176
a(F0.05000000074505806
F-1.0471975803375244
tp177
a(F0.05000000074505806
F1.0471975803375244
tp178
a(F0.05000000074505806
F1.0471975803375244
tp179
a(F0.05000000074505806
F1.0471975803375244
tp180
a(F0.05000000074505806
F-1.047197699546814
tp181
a(F0.05000000074505806
F-1.047197699546814
tp182
a(F0.05000000074505806
F-1.0471975803375244
tp183
a(F0.05000000074505806
F-1.0471497774124146
tp184
a(F0.05000000074505806
F1.0471975803375244
tp185
a(F0.05000000074505806
F1.0471975803375244
tp186
a(F0.05000000074505806
F1.0471975803375244
tp187
a(F0.05000000074505806
F1.0471975803375244
tp188
a(F0.05000000074505806
F-1.0471975803375244
tp189
a(F0.05000000074505806
F-1.0471975803375244
tp190
a(F0.05000000074505806
F1.0438481569290161
tp191
a(F0.05000000074505806
F1.0438481569290161
tp192
a(F0.05000000074505806
F1.0471975803375244
tp193
a(F0.05000000074505806
F1.0471975803375244
tp194
a(F0.05000000074505806
F-1.0471975803375244
tp195
a(F0.05000000074505806
F-1.0471975803375244
tp196
a(F0.05000000074505806
F1.0471975803375244
tp197
a(F0.05000000074505806
F-1.0471975803375244
tp198
a(F0.05000000074505806
F1.0471975803375244
tp199
a(F0.05000000074505806
F1.0471956729888916
tp200
a(F0.05000000074505806
F-1.0471975803375244
tp201
a(F0.05000000074505806
F-1.0471975803375244
tp202
a(F0.05000000074505806
F-1.0471975803375244
tp203
a(F0.05000000074505806
F1.0471975803375244
tp204
a(F0.05000000074505806
F1.0471975803375244
tp205
a(F0.05000000074505806
F1.0471975803375244
tp206
a(F0.05000000074505806
F-0.7761161923408508
tp207
a(F0.05000000074505806
F-1.0471975803375244
tp208
a(F0.05000000074505806
F-1.034584879875183
tp209
a(F0.05000000074505806
F1.0471975803375244
tp210
a(F0.05000000074505806
F1.0471975803375244
tp211
a(F0.05000000074505806
F1.0471975803375244
tp212
a(F0.05000000074505806
F-1.0471975803375244
tp213
a(F0.05000000074505806
F-1.0471975803375244
tp214
a(F0.05000000074505806
F-1.0471961498260498
tp215
a(F0.05000000074505806
F1.0471975803375244
tp216
a(F0.05000000074505806
F1.0471975803375244
tp217
a(F0.05000000074505806
F1.0471975803375244
tp218
a(F0.05000000074505806
F-1.0204839706420898
tp219
a(F0.05000000074505806
F-1.0471975803375244
tp220
a(F0.05000000074505806
F1.0471975803375244
tp221
a(F0.05000000074505806
F-1.0471975803375244
tp222
a(F0.05000000074505806
F1.0471547842025757
tp223
a(F0.05000000074505806
F0.9700488448143005
tp224
a(F0.05000000074505806
F-1.0471975803375244
tp225
a(F0.05000000074505806
F-1.0471278429031372
tp226
a(F0.05000000074505806
F1.0471975803375244
tp227
a(F0.05000000074505806
F-1.040487289428711
tp228
a(F0.05000000074505806
F1.0471975803375244
tp229
a(F0.05000000074505806
F1.044593095779419
tp230
a(F0.05000000074505806
F1.044593095779419
tp231
a(F0.05000000074505806
F-1.0471975803375244
tp232
a(F0.05000000074505806
F1.0471975803375244
tp233
a(F0.05000000074505806
F1.0471975803375244
tp234
a(F0.05000000074505806
F1.0471975803375244
tp235
a(F0.0
F0.0
tp236
a(F0.0
F0.0
tp237
a(F0.5
F-1.0471975803375244
tp238
a(F0.5
F-1.0471975803375244
tp239
a(F0.5
F-1.0471975803375244
tp240
a(F0.5
F-1.0471975803375244
tp241
a(F0.5
F1.0471975803375244
tp242
a(F0.5
F1.0471975803375244
tp243
a(F0.5
F1.0471975803375244
tp244
a(F0.5
F-1.0471975803375244
tp245
a(F0.5
F-1.0471975803375244
tp246
a(F0.5
F-1.0471975803375244
tp247
a(F0.5
F-1.0471975803375244
tp248
a(F0.5
F-1.0471975803375244
tp249
a(F0.0
F0.0
tp250
a(F0.0
F0.0
tp251
a(F0.0
F0.0
tp252
a(F0.0
F0.0
tp253
a(F0.5
F1.0471975803375244
tp254
a(F0.5
F1.0471975803375244
tp255
a(F0.5
F1.0471975803375244
tp256
a(F0.5
F1.0471975803375244
tp257
a(F0.5
F1.0471975803375244
tp258
a(F0.5
F-1.0471975803375244
tp259
a(F0.5
F-1.0471975803375244
tp260
a(F0.5
F-1.0471972227096558
tp261
a(F0.5
F1.0471975803375244
tp262
a(F0.5
F1.0468173027038574
tp263
a(F0.5
F-1.0471975803375244
tp264
a(F0.5
F-1.0422016382217407
tp265
a(F0.5
F1.0471975803375244
tp266
a(F0.4999992847442627
F1.0471975803375244
tp267
a(F0.5
F1.0471975803375244
tp268
a(F0.5
F-1.0471975803375244
tp269
a(F0.5
F-1.0471975803375244
tp270
a(F0.5
F-1.0471975803375244
tp271
a(F0.5
F-1.0471975803375244
tp272
a(F0.05000000074505806
F1.0471975803375244
tp273
a(F0.05000000074505806
F1.0471975803375244
tp274
a(F0.05000000074505806
F1.0471975803375244
tp275
a(F0.05000000074505806
F1.0471975803375244
tp276
a(F0.05000000074505806
F1.0471975803375244
tp277
a(F0.05000000074505806
F-1.047196865081787
tp278
a(F0.5
F-1.0471975803375244
tp279
a(F0.5
F-1.0471975803375244
tp280
a(F0.5
F-1.0471975803375244
tp281
a(F0.05000000074505806
F-1.0471975803375244
tp282
a(F0.0
F0.0
tp283
a(F0.05000000074505806
F1.0471975803375244
tp284
a(F0.05000000074505806
F1.0471975803375244
tp285
a(F0.05000000074505806
F1.0471975803375244
tp286
a(F0.05000000074505806
F1.0471975803375244
tp287
a(F0.05000000074505806
F1.0471975803375244
tp288
a(F0.05000000074505806
F1.0471975803375244
tp289
a(F0.05000000074505806
F1.0471975803375244
tp290
a(F0.05000000074505806
F-1.0471975803375244
tp291
a(F0.05000000074505806
F-1.0471975803375244
tp292
a(F0.05000000074505806
F-1.0471975803375244
tp293
a(F0.05000000074505806
F-1.0471975803375244
tp294
a(F0.05000000074505806
F-1.0471975803375244
tp295
a(F0.05000000074505806
F-0.9422605037689209
tp296
a(F0.05000000074505806
F1.0471975803375244
tp297
a(F0.05000000074505806
F1.0471975803375244
tp298
a(F0.05000000074505806
F1.0471975803375244
tp299
a(F0.05000000074505806
F1.0471975803375244
tp300
a(F0.05000000074505806
F1.0471975803375244
tp301
a(F0.05000000074505806
F1.0471975803375244
tp302
a(F0.05000000074505806
F0.996300458908081
tp303
a(F0.05000000074505806
F1.0471975803375244
tp304
a(F0.05000000074505806
F1.0471975803375244
tp305
a(F0.05000000074505806
F1.0471975803375244
tp306
a(F0.05000000074505806
F1.0471975803375244
tp307
a(F0.5
F1.0471975803375244
tp308
a(F0.5
F1.0471975803375244
tp309
a(F0.5
F1.0471975803375244
tp310
a(F0.5
F1.0465662479400635
tp311
a(F0.5
F-1.0471975803375244
tp312
a(F0.5
F-1.0471975803375244
tp313
a(F0.5
F1.0471975803375244
tp314
a(F0.5
F-1.0471975803375244
tp315
a(F0.5
F-1.0471975803375244
tp316
a(F0.5
F1.0471975803375244
tp317
a(F0.5
F1.0471975803375244
tp318
a(F0.4877919554710388
F1.0471975803375244
tp319
a(F0.05000000074505806
F1.0471975803375244
tp320
a(F0.05000000074505806
F1.0471975803375244
tp321
a(F0.0
F0.0
tp322
a(F0.05000000074505806
F1.0471975803375244
tp323
a(F0.05000000074505806
F1.0471975803375244
tp324
a(F0.05000000074505806
F1.0471975803375244
tp325
a(F0.05000000074505806
F1.0471975803375244
tp326
a(F0.05000000074505806
F1.0471975803375244
tp327
a(F0.05000000074505806
F1.0471975803375244
tp328
a(F0.05000000074505806
F1.0471975803375244
tp329
a(F0.5
F1.0471975803375244
tp330
a(F0.12164920568466187
F1.0471975803375244
tp331
a(F0.0
F0.0
tp332
a(F0.05000000074505806
F1.0471975803375244
tp333
a(F0.05000000074505806
F-1.0471975803375244
tp334
a(F0.5
F1.0471975803375244
tp335
a(F0.5
F-1.0471975803375244
tp336
a(F0.4999999403953552
F1.0471975803375244
tp337
a(F0.05000000074505806
F-1.0471892356872559
tp338
a(F0.5
F1.047195315361023
tp339
a(F0.05000000074505806
F1.0339839458465576
tp340
a(F0.12172973155975342
F-1.0471975803375244
tp341
a(F0.0
F0.0
tp342
a(F0.5
F0.07172518223524094
tp343
a(F0.05000000074505806
F1.0471973419189453
tp344
a(F0.05000000074505806
F1.0471973419189453
tp345
a(F0.05000000074505806
F0.47397568821907043
tp346
a(F0.05000000074505806
F-1.0471975803375244
tp347
a(F0.05000000074505806
F1.0471975803375244
tp348
a(F0.05000000074505806
F-1.0469233989715576
tp349
a(F0.05000000074505806
F-1.0469233989715576
tp350
a(F0.05000000074505806
F1.0471975803375244
tp351
a(F0.05000000074505806
F0.9170411825180054
tp352
a(F0.05000000074505806
F-1.0471974611282349
tp353
a(F0.05000000074505806
F1.0470119714736938
tp354
a(F0.05000000074505806
F-0.966392457485199
tp355
a(F0.05000000074505806
F-0.43690016865730286
tp356
a(F0.05000000074505806
F-0.9333016276359558
tp357
a(F0.05000000074505806
F1.0471972227096558
tp358
a(F0.05000000074505806
F-1.0471888780593872
tp359
a(F0.05000000074505806
F1.0471975803375244
tp360
a(F0.05000000074505806
F1.0374597311019897
tp361
a(F0.05000000074505806
F-1.0469928979873657
tp362
a(F0.05000000074505806
F1.0471975803375244
tp363
a(F0.05000000074505806
F-1.0471975803375244
tp364
a(F0.05000000074505806
F1.0470525026321411
tp365
a(F0.05000000074505806
F-1.0471796989440918
tp366
a(F0.05000000074505806
F1.0449026823043823
tp367
a(F0.05000000074505806
F-1.0471848249435425
tp368
a(F0.05000000074505806
F1.0460577011108398
tp369
a(F0.05000000074505806
F-1.044569969177246
tp370
a(F0.05000000074505806
F-1.0469425916671753
tp371
a(F0.05000000074505806
F1.047196626663208
tp372
a(F0.05000000074505806
F-1.0471866130828857
tp373
a(F0.05000000074505806
F1.0471975803375244
tp374
a(F0.05000000074505806
F-0.9281892776489258
tp375
a(F0.05000000074505806
F1.0471975803375244
tp376
a(F0.05000000074505806
F0.6833716630935669
tp377
a(F0.05000000074505806
F-1.0471972227096558
tp378
a(F0.05000000074505806
F1.0471975803375244
tp379
a(F0.05000000074505806
F-1.0470136404037476
tp380
a(F0.05000000074505806
F1.0471975803375244
tp381
a(F0.05000000074505806
F0.9350862503051758
tp382
a(F0.05000000074505806
F-0.9956138730049133
tp383
a(F0.05000000074505806
F1.0471974611282349
tp384
a(F0.05000000074505806
F-1.0461169481277466
tp385
a(F0.05000000074505806
F0.9669556021690369
tp386
a(F0.05000000074505806
F-1.0376187562942505
tp387
a(F0.05000000074505806
F-1.045324683189392
tp388
a(F0.05000000074505806
F1.0471973419189453
tp389
a(F0.05000000074505806
F-1.0443315505981445
tp390
a(F0.05000000074505806
F1.0471975803375244
tp391
a(F0.05000000074505806
F1.0471975803375244
tp392
a(F0.05000000074505806
F0.23222875595092773
tp393
a(F0.05000000074505806
F-0.9231851696968079
tp394
a(F0.05000000074505806
F0.9942929744720459
tp395
a(F0.05000000074505806
F0.7798519730567932
tp396
a(F0.05000000074505806
F-1.0470185279846191
tp397
a(F0.05000000074505806
F-1.0471972227096558
tp398
a(F0.05000000074505806
F-1.038772702217102
tp399
a(F0.05000000074505806
F1.0471975803375244
tp400
a(F0.05000000074505806
F-1.0418682098388672
tp401
a(F0.05000000074505806
F-1.0418682098388672
tp402
a(F0.05000000074505806
F1.0471975803375244
tp403
a(F0.05000000074505806
F0.36472287774086
tp404
a(F0.05000000074505806
F-0.8384794592857361
tp405
a(F0.05000000074505806
F-1.0277094841003418
tp406
a(F0.05000000074505806
F1.0471633672714233
tp407
a(F0.05000000074505806
F-1.0471861362457275
tp408
a(F0.05000000074505806
F1.0471973419189453
tp409
a(F0.05000000074505806
F1.038873553276062
tp410
a(F0.0
F0.0
tp411
a(F0.05000000074505806
F1.036394476890564
tp412
a(F0.05000000074505806
F1.0471975803375244
tp413
a(F0.05000000074505806
F1.0471975803375244
tp414
a(F0.0
F0.0
tp415
a(F0.05000000074505806
F1.0471975803375244
tp416
a(F0.05000000074505806
F1.0471975803375244
tp417
a(F0.05000000074505806
F1.0471975803375244
tp418
a(F0.05000000074505806
F1.0471975803375244
tp419
a(F0.5
F1.0471975803375244
tp420
a(F0.5
F1.0471975803375244
tp421
a(F0.5
F1.0471975803375244
tp422
a(F0.5
F1.0471975803375244
tp423
a(F0.5
F1.0471975803375244
tp424
a(F0.5
F1.0471975803375244
tp425
a(F0.5
F1.0471975803375244
tp426
a(F0.5
F1.0471975803375244
tp427
a(F0.5
F1.0471975803375244
tp428
a(F0.5
F1.0471975803375244
tp429
a(F0.5
F1.0471975803375244
tp430
a(F0.05000000074505806
F1.0471975803375244
tp431
a(F0.05000000074505806
F1.0471975803375244
tp432
a(F0.05000000074505806
F1.0471975803375244
tp433
a(F0.05000000074505806
F1.0471975803375244
tp434
a(F0.05000000074505806
F1.0471975803375244
tp435
a(F0.05000000074505806
F1.0471975803375244
tp436
a(F0.05000000074505806
F1.0471975803375244
tp437
a(F0.0
F0.0
tp438
a(F0.0
F0.0
tp439
a(F0.5
F1.0471975803375244
tp440
a(F0.5
F1.0471975803375244
tp441
a(F0.5
F-1.0471975803375244
tp442
a(F0.5
F0.600138783454895
tp443
a(F0.5
F1.0471975803375244
tp444
a(F0.5
F1.0471975803375244
tp445
a(F0.5
F-1.0471916198730469
tp446
a(F0.5
F-1.0471975803375244
tp447
a(F0.5
F1.0471975803375244
tp448
a(F0.5
F1.0471975803375244
tp449
a(F0.5
F1.0471975803375244
tp450
a(F0.0
F0.0
tp451
a(F0.0
F0.0
tp452
a(F0.0
F0.0
tp453
a(F0.5
F-1.0471975803375244
tp454
a(F0.5
F-1.0471975803375244
tp455
a(F0.5
F-1.0471975803375244
tp456
a(F0.5
F-1.0471975803375244
tp457
a(F0.0
F0.0
tp458
a(F0.5
F-1.0471975803375244
tp459
a(F0.5
F-1.0471974611282349
tp460
a(F0.5
F-1.0471975803375244
tp461
a(F0.5
F1.0471975803375244
tp462
a(F0.5
F1.0471975803375244
tp463
a(F0.5
F-0.6112680435180664
tp464
a(F0.5
F-0.6112680435180664
tp465
a(F0.5
F-1.0471975803375244
tp466
a(F0.5
F-1.0471975803375244
tp467
a(F0.5
F-1.0471975803375244
tp468
a(F0.5
F-1.0471975803375244
tp469
a(F0.5
F1.0471975803375244
tp470
a(F0.5
F1.0471975803375244
tp471
a(F0.5
F1.0471975803375244
tp472
a(F0.0
F0.0
tp473
a(F0.0
F0.0
tp474
a(F0.05000000074505806
F1.0471975803375244
tp475
a(F0.05000000074505806
F1.0471975803375244
tp476
a(F0.05000000074505806
F1.0471975803375244
tp477
a(F0.05000000074505806
F1.0471975803375244
tp478
a(F0.05000000074505806
F1.0471975803375244
tp479
a(F0.05000000074505806
F1.0471975803375244
tp480
a(F0.05000000074505806
F1.0471975803375244
tp481
a(F0.05000000074505806
F1.0471975803375244
tp482
a(F0.4999988079071045
F1.0471975803375244
tp483
a(F0.4999988079071045
F1.0471975803375244
tp484
a(F0.05000000074505806
F1.0471975803375244
tp485
a(F0.0
F0.0
tp486
a(F0.0
F0.0
tp487
a(F0.0
F0.0
tp488
a(F0.0
F0.0
tp489
a(F0.0
F0.0
tp490
a(F0.5
F-1.0471975803375244
tp491
a(F0.5
F-1.0471975803375244
tp492
a(F0.5
F-1.0471975803375244
tp493
a(F0.5
F1.028722882270813
tp494
a(F0.5
F1.0471975803375244
tp495
a(F0.5
F-1.0471975803375244
tp496
a(F0.5
F-1.0471975803375244
tp497
a(F0.5
F-1.0471975803375244
tp498
a(F0.5
F-1.0471975803375244
tp499
a(F0.5
F1.0471975803375244
tp500
a(F0.5
F1.0471975803375244
tp501
a(F0.5
F1.0471975803375244
tp502
a(F0.5
F1.0471975803375244
tp503
a(F0.5
F1.0471975803375244
tp504
a(F0.5
F1.0471975803375244
tp505
a(F0.5
F-1.0471975803375244
tp506
a(F0.5
F1.0471975803375244
tp507
a(F0.5
F1.0471975803375244
tp508
a(F0.5
F1.0471975803375244
tp509
a(F0.5
F1.0471975803375244
tp510
a(F0.5
F1.0471975803375244
tp511
a(F0.5
F1.0471975803375244
tp512
a(F0.5
F1.0471975803375244
tp513
a(F0.5
F1.0471975803375244
tp514
a(F0.5
F1.0471975803375244
tp515
a(F0.5
F1.0471975803375244
tp516
a(F0.05000000074505806
F-1.0457894802093506
tp517
a(F0.05000000074505806
F1.0471975803375244
tp518
a(F0.05000000074505806
F-1.0471975803375244
tp519
a(F0.05000000074505806
F1.0471975803375244
tp520
a(F0.05000000074505806
F-1.0471975803375244
tp521
a(F0.05000000074505806
F1.0471975803375244
tp522
a(F0.5
F-1.0471975803375244
tp523
a(F0.05000000074505806
F1.0471975803375244
tp524
a(F0.0
F0.0
tp525
a(F0.0
F0.0
tp526
a(F0.05000000074505806
F1.0471975803375244
tp527
a(F0.05000000074505806
F1.0471975803375244
tp528
a(F0.05000000074505806
F1.0471975803375244
tp529
a(F0.05000000074505806
F1.0471975803375244
tp530
a(F0.05000000074505806
F1.0471975803375244
tp531
a(F0.05000000074505806
F1.0471975803375244
tp532
a(F0.05000000074505806
F1.0471975803375244
tp533
a(F0.05000000074505806
F1.0471975803375244
tp534
a(F0.05000000074505806
F1.0471975803375244
tp535
a(F0.05000000074505806
F1.0471975803375244
tp536
a(F0.05000000074505806
F1.0471975803375244
tp537
a(F0.05000000074505806
F1.0471975803375244
tp538
a(F0.0
F0.0
tp539
a(F0.0
F0.0
tp540
a(F0.0
F0.0
tp541
a(F0.0
F0.0
tp542
a(F0.5
F1.0471975803375244
tp543
a(F0.0
F0.0
tp544
a(F0.5
F-1.0471975803375244
tp545
a(F0.5
F-1.047192096710205
tp546
a(F0.5
F1.0471975803375244
tp547
a(F0.5
F1.0471975803375244
tp548
a(F0.0
F0.0
tp549
a(F0.5
F1.0471975803375244
tp550
a(F0.5
F-1.0471975803375244
tp551
a(F0.0
F0.0
tp552
a(F0.5
F1.0471975803375244
tp553
a(F0.0
F0.0
tp554
a(F0.5
F1.0471975803375244
tp555
a(F0.5
F-1.0471975803375244
tp556
a(F0.5
F-1.0471975803375244
tp557
a(F0.5
F-1.0471975803375244
tp558
a(F0.5
F1.0471975803375244
tp559
a(F0.5
F1.0471975803375244
tp560
a(F0.5
F-1.0471975803375244
tp561
a(F0.5
F-1.0471975803375244
tp562
a(F0.5
F-1.0471975803375244
tp563
a(F0.0
F0.0
tp564
a(F0.5
F-1.0471975803375244
tp565
a(F0.5
F-1.0471975803375244
tp566
a(F0.5
F-1.0471975803375244
tp567
a(F0.5
F-1.0471975803375244
tp568
a(F0.5
F1.0148926973342896
tp569
a(F0.5
F1.0471975803375244
tp570
a(F0.5
F1.0471975803375244
tp571
a(F0.5
F1.0471975803375244
tp572
a(F0.5
F-1.0467373132705688
tp573
a(F0.5
F-1.0471723079681396
tp574
a(F0.5
F-1.0467166900634766
tp575
a(F0.5
F-1.0415472984313965
tp576
a(F0.5
F-1.0471975803375244
tp577
a(F0.5
F-1.0471975803375244
tp578
a(F0.5
F-1.0471975803375244
tp579
a(F0.5
F1.0471975803375244
tp580
a(F0.5
F1.0471975803375244
tp581
a(F0.5
F1.0471975803375244
tp582
a(F0.0
F0.0
tp583
a(F0.0
F0.0
tp584
a(F0.05000000074505806
F1.0471975803375244
tp585
a(F0.05000000074505806
F1.0471975803375244
tp586
a(F0.05000000074505806
F1.0471975803375244
tp587
a(F0.05000000074505806
F1.0471975803375244
tp588
a(F0.05000000074505806
F1.0471975803375244
tp589
a(F0.05000000074505806
F1.0471975803375244
tp590
a(F0.05000000074505806
F1.0471975803375244
tp591
a(F0.05000000074505806
F1.0471975803375244
tp592
a(F0.5
F1.0471975803375244
tp593
a(F0.5
F1.0471975803375244
tp594
a(F0.5
F1.0471975803375244
tp595
a(F0.0
F0.0
tp596
a(F0.0
F0.0
tp597
a(F0.0
F0.0
tp598
a(F0.0
F0.0
tp599
a(F0.5
F-1.0471975803375244
tp600
a(F0.5
F1.0443071126937866
tp601
a(F0.0
F0.0
tp602
a(F0.0
F0.0
tp603
a(F0.5
F-1.0471975803375244
tp604
a(F0.5
F-1.0471975803375244
tp605
a(F0.5
F-1.0471975803375244
tp606
a(F0.5
F-1.0471975803375244
tp607
a(F0.5
F1.0471975803375244
tp608
a(F0.5
F1.0471975803375244
tp609
a(F0.5
F1.0471975803375244
tp610
a(F0.5
F-1.0471975803375244
tp611
a(F0.5
F-1.0471975803375244
tp612
a(F0.5
F-1.0471975803375244
tp613
a(F0.5
F-1.0471975803375244
tp614
a(F0.0
F0.0
tp615
a(F0.0
F0.0
tp616
a(F0.0
F0.0
tp617
a(F0.0
F0.0
tp618
a(F0.5
F1.0471975803375244
tp619
a(F0.5
F1.0471975803375244
tp620
a(F0.5
F-1.0471975803375244
tp621
a(F0.5
F-1.0471975803375244
tp622
a(F0.5
F-1.0471950769424438
tp623
a(F0.5
F-1.0471950769424438
tp624
a(F0.5
F1.0471975803375244
tp625
a(F0.5
F1.0471975803375244
tp626
a(F0.5
F1.0471975803375244
tp627
a(F0.0
F0.0
tp628
a(F0.5
F-1.0471975803375244
tp629
a(F0.5
F-1.0471975803375244
tp630
a(F0.5
F1.0471975803375244
tp631
a(F0.5
F1.0471975803375244
tp632
a(F0.5
F1.0471975803375244
tp633
a(F0.5
F-1.0471211671829224
tp634
a(F0.5
F-1.0471975803375244
tp635
a(F0.5
F-1.0471975803375244
tp636
a(F0.5
F1.0471975803375244
tp637
a(F0.05000000074505806
F1.0471975803375244
tp638
a(F0.05000000074505806
F1.0471975803375244
tp639
a(F0.4996652603149414
F1.0471975803375244
tp640
a(F0.5
F-1.0471975803375244
tp641
a(F0.5
F-1.0471975803375244
tp642
a(F0.5
F-1.0471975803375244
tp643
a(F0.05000000074505806
F-1.0471975803375244
tp644
a(F0.17897218465805054
F-0.8918817639350891
tp645
a(F0.05000000074505806
F1.0471903085708618
tp646
a(F0.05000000074505806
F-0.7253366112709045
tp647
a(F0.05000000074505806
F-1.0187439918518066
tp648
a(F0.05000000074505806
F1.0471975803375244
tp649
a(F0.05000000074505806
F1.047195315361023
tp650
a(F0.05000000074505806
F1.0453391075134277
tp651
a(F0.05000000074505806
F1.0453391075134277
tp652
a(F0.05000000074505806
F1.0471975803375244
tp653
a(F0.05000000074505806
F1.0378615856170654
tp654
a(F0.05000000074505806
F-0.853015124797821
tp655
a(F0.4999585747718811
F-1.0471975803375244
tp656
a(F0.5
F-1.0471975803375244
tp657
a(F0.2887144386768341
F-1.0471975803375244
tp658
a(F0.05000000074505806
F-1.0471975803375244
tp659
a(F0.05000000074505806
F-1.0447421073913574
tp660
a(F0.05000000074505806
F1.0471975803375244
tp661
a(F0.05000000074505806
F0.8428393602371216
tp662
a(F0.05000000074505806
F0.9843499660491943
tp663
a(F0.05000000074505806
F-0.7634914517402649
tp664
a(F0.05000000074505806
F-1.0471962690353394
tp665
a(F0.05000000074505806
F-1.0471266508102417
tp666
a(F0.05000000074505806
F1.0471975803375244
tp667
a(F0.05000000074505806
F-1.0471808910369873
tp668
a(F0.05000000074505806
F1.0471975803375244
tp669
a(F0.05000000074505806
F1.0471975803375244
tp670
a(F0.05000000074505806
F1.0471975803375244
tp671
a(F0.05000000074505806
F1.0471967458724976
tp672
a(F0.05000000074505806
F1.0471975803375244
tp673
a(F0.05000000074505806
F1.0471974611282349
tp674
a(F0.05000000074505806
F-1.0471974611282349
tp675
a(F0.33710935711860657
F-1.0471975803375244
tp676
a(F0.05000000074505806
F-1.0471975803375244
tp677
a(F0.05000000074505806
F-1.0471975803375244
tp678
a(F0.05000000074505806
F-1.0471975803375244
tp679
a(F0.05000000074505806
F-1.0471975803375244
tp680
a(F0.05000000074505806
F1.047184705734253
tp681
a(F0.05000000074505806
F1.0471957921981812
tp682
a(F0.05000000074505806
F1.0471975803375244
tp683
a(F0.05000000074505806
F1.0471948385238647
tp684
a(F0.05000000074505806
F1.044457197189331
tp685
a(F0.05000000074505806
F1.0471965074539185
tp686
a(F0.05000000074505806
F1.0471975803375244
tp687
a(F0.05000000074505806
F-1.0471975803375244
tp688
a(F0.05000000074505806
F-1.0471975803375244
tp689
a(F0.05000000074505806
F-1.0471975803375244
tp690
a(F0.05000000074505806
F-1.0471975803375244
tp691
a(F0.05000000074505806
F-1.0471975803375244
tp692
a(F0.05000000074505806
F-1.0471975803375244
tp693
a(F0.05000000074505806
F-1.0471975803375244
tp694
a(F0.05000000074505806
F1.0471975803375244
tp695
a(F0.05000000074505806
F1.0471973419189453
tp696
a(F0.05000000074505806
F1.0471975803375244
tp697
a(F0.05000000074505806
F1.0471975803375244
tp698
a(F0.05000000074505806
F1.0466912984848022
tp699
a(F0.05000000074505806
F1.0471943616867065
tp700
a(F0.05000000074505806
F1.0471975803375244
tp701
a(F0.05000000074505806
F-1.0471975803375244
tp702
a(F0.05000000074505806
F-1.0471975803375244
tp703
a(F0.05000000074505806
F-1.0471975803375244
tp704
a(F0.05000000074505806
F-1.0471975803375244
tp705
a(F0.05000000074505806
F-1.0471975803375244
tp706
a(F0.05000000074505806
F-1.0471975803375244
tp707
a(F0.05000000074505806
F0.9775208830833435
tp708
a(F0.05000000074505806
F0.18927325308322906
tp709
a(F0.05000000074505806
F0.18927325308322906
tp710
a(F0.05000000074505806
F1.0003854036331177
tp711
a(F0.05000000074505806
F-1.047088623046875
tp712
a(F0.05000000074505806
F0.5545413494110107
tp713
a(F0.05000000074505806
F-0.9194193482398987
tp714
a(F0.05000000074505806
F-1.0471975803375244
tp715
a(F0.05000000074505806
F1.0471975803375244
tp716
a(F0.05000000074505806
F1.0471973419189453
tp717
a(F0.05000000074505806
F0.9579755067825317
tp718
a(F0.05000000074505806
F-1.0248640775680542
tp719
a(F0.05000000074505806
F-1.0471503734588623
tp720
a(F0.05000000074505806
F1.013180136680603
tp721
a(F0.05000000074505806
F-1.046692967414856
tp722
a(F0.05000000074505806
F1.045161247253418
tp723
a(F0.05000000074505806
F1.045161247253418
tp724
a(F0.05000000074505806
F1.0471975803375244
tp725
a(F0.05000000074505806
F1.0471974611282349
tp726
a(F0.05000000074505806
F1.0471969842910767
tp727
a(F0.05000000074505806
F-0.9910227060317993
tp728
a(F0.05000000074505806
F-1.0471975803375244
tp729
a(F0.05000000074505806
F-1.0471975803375244
tp730
a(F0.05000000074505806
F-1.0471975803375244
tp731
a(F0.0
F0.0
tp732
a(F0.0
F0.0
tp733
a(F0.5
F-1.0471975803375244
tp734
a(F0.5
F-1.0471975803375244
tp735
a(F0.5
F-1.0471975803375244
tp736
a(F0.5
F1.0471975803375244
tp737
a(F0.5
F1.0471975803375244
tp738
a(F0.5
F1.0471975803375244
tp739
a(F0.5
F1.0471975803375244
tp740
a(F0.5
F-1.0471975803375244
tp741
a(F0.5
F-1.0471975803375244
tp742
a(F0.5
F-1.0471975803375244
tp743
a(F0.5
F-1.0471975803375244
tp744
a(F0.0
F0.0
tp745
a(F0.0
F0.0
tp746
a(F0.0
F0.0
tp747
a(F0.0
F0.0
tp748
a(F0.0
F0.0
tp749
a(F0.0
F0.0
tp750
a(F0.05000000074505806
F1.0471975803375244
tp751
a(F0.05000000074505806
F-1.0471975803375244
tp752
a(F0.05000000074505806
F1.0471975803375244
tp753
a(F0.0
F0.0
tp754
a(F0.5
F-1.0471975803375244
tp755
a(F0.05000000074505806
F0.9556729197502136
tp756
a(F0.05000000074505806
F-1.0471975803375244
tp757
a(F0.05000000074505806
F1.0471975803375244
tp758
a(F0.05000000074505806
F1.0471975803375244
tp759
a(F0.05000000074505806
F-1.0471975803375244
tp760
a(F0.05000000074505806
F1.0471975803375244
tp761
a(F0.05000000074505806
F-1.0471975803375244
tp762
a(F0.05000000074505806
F-1.0471975803375244
tp763
a(F0.05000000074505806
F1.0471975803375244
tp764
a(F0.05000000074505806
F1.0471975803375244
tp765
a(F0.05000000074505806
F-1.0471975803375244
tp766
a(F0.05000000074505806
F1.0471975803375244
tp767
a(F0.05000000074505806
F-1.0471975803375244
tp768
a(F0.05000000074505806
F1.0471975803375244
tp769
a(F0.05000000074505806
F-1.0471975803375244
tp770
a(F0.05000000074505806
F-1.0471975803375244
tp771
a(F0.05000000074505806
F1.0471975803375244
tp772
a(F0.05000000074505806
F1.0471975803375244
tp773
a(F0.05000000074505806
F1.0471975803375244
tp774
a(F0.05000000074505806
F-1.0471975803375244
tp775
a(F0.05000000074505806
F1.0471975803375244
tp776
a(F0.05000000074505806
F-1.0471975803375244
tp777
a(F0.05000000074505806
F1.0471975803375244
tp778
a(F0.05000000074505806
F1.0471975803375244
tp779
a(F0.05000000074505806
F1.0471975803375244
tp780
a(F0.0
F0.0
tp781
a(F0.0
F0.0
tp782
a(F0.0
F0.0
tp783
a(F0.5
F-1.0471975803375244
tp784
a(F0.5
F-1.0471975803375244
tp785
a(F0.5
F1.0471975803375244
tp786
a(F0.5
F1.0465418100357056
tp787
a(F0.5
F-1.0471975803375244
tp788
a(F0.5
F-1.0471975803375244
tp789
a(F0.5
F-1.0471975803375244
tp790
a(F0.5
F-1.0471975803375244
tp791
a(F0.5
F1.0471975803375244
tp792
a(F0.5
F-1.0471975803375244
tp793
a(F0.0
F0.0
tp794
a(F0.0
F0.0
tp795
a(F0.0
F0.0
tp796
a(F0.0
F0.0
tp797
a(F0.0
F0.0
tp798
a(F0.5
F1.0471975803375244
tp799
a(F0.5
F1.0471975803375244
tp800
a(F0.5
F1.0471975803375244
tp801
a(F0.5
F-1.0471975803375244
tp802
a(F0.5
F-1.0471975803375244
tp803
a(F0.5
F-1.0471975803375244
tp804
a(F0.5
F-1.0471975803375244
tp805
a(F0.5
F-1.0471946001052856
tp806
a(F0.5
F1.0471926927566528
tp807
a(F0.5
F1.0471975803375244
tp808
a(F0.5
F1.0471975803375244
tp809
a(F0.5
F0.8859026432037354
tp810
a(F0.5
F-1.0471975803375244
tp811
a(F0.5
F-1.0471975803375244
tp812
a(F0.5
F-1.047197699546814
tp813
a(F0.430210143327713
F1.0471975803375244
tp814
a(F0.1874886453151703
F1.0471975803375244
tp815
a(F0.05000000074505806
F1.0471975803375244
tp816
a(F0.06455077230930328
F1.0471975803375244
tp817
a(F0.5
F-1.0471974611282349
tp818
a(F0.5
F-1.0471975803375244
tp819
a(F0.5
F-1.0471975803375244
tp820
a(F0.49860742688179016
F-1.0423997640609741
tp821
a(F0.05000000074505806
F1.0471975803375244
tp822
a(F0.05000000074505806
F1.0471975803375244
tp823
a(F0.05000000074505806
F1.0471975803375244
tp824
a(F0.05000000074505806
F1.0471975803375244
tp825
a(F0.05000000074505806
F1.0471975803375244
tp826
a(F0.05000000074505806
F1.0471975803375244
tp827
a(F0.05000000074505806
F1.0471975803375244
tp828
a(F0.5
F1.0203661918640137
tp829
a(F0.11593495309352875
F1.0471975803375244
tp830
a(F0.05000000074505806
F1.0471975803375244
tp831
a(F0.05000000074505806
F1.0471975803375244
tp832
a(F0.4998911917209625
F1.0471975803375244
tp833
a(F0.0
F0.0
tp834
a(F0.0
F0.0
tp835
a(F0.5
F-1.0471975803375244
tp836
a(F0.5
F-1.0471975803375244
tp837
a(F0.5
F-1.0471975803375244
tp838
a(F0.5
F1.0471975803375244
tp839
a(F0.5
F-1.0471975803375244
tp840
a(F0.5
F-1.0471975803375244
tp841
a(F0.5
F1.0471975803375244
tp842
a(F0.5
F0.9736443161964417
tp843
a(F0.5
F-1.0471975803375244
tp844
a(F0.5
F-1.0471975803375244
tp845
a(F0.0
F0.0
tp846
a(F0.0
F0.0
tp847
a(F0.0
F0.0
tp848
a(F0.0
F0.0
tp849
a(F0.0
F0.0
tp850
a(F0.0
F0.0
tp851
a(F0.05000000074505806
F1.0471975803375244
tp852
a(F0.05000000074505806
F1.0471975803375244
tp853
a(F0.05000000074505806
F1.0471975803375244
tp854
a(F0.05000000074505806
F1.0471975803375244
tp855
a(F0.05000000074505806
F1.0471975803375244
tp856
a(F0.05000000074505806
F1.0471975803375244
tp857
a(F0.49994105100631714
F1.0471975803375244
tp858
a(F0.5
F1.0471975803375244
tp859
a(F0.5
F1.0471975803375244
tp860
a(F0.5
F1.0471975803375244
tp861
a(F0.5
F1.0471975803375244
tp862
a(F0.5
F-1.0471975803375244
tp863
a(F0.5
F1.0471975803375244
tp864
a(F0.5
F-1.0471975803375244
tp865
a(F0.5
F-1.0471975803375244
tp866
a(F0.5
F-1.0471975803375244
tp867
a(F0.5
F1.0471975803375244
tp868
a(F0.5
F1.0471975803375244
tp869
a(F0.5
F1.0471975803375244
tp870
a(F0.5
F-1.0471975803375244
tp871
a(F0.5
F-1.0471975803375244
tp872
a(F0.5
F-1.0471975803375244
tp873
a(F0.5
F-1.046165108680725
tp874
a(F0.5
F1.0471975803375244
tp875
a(F0.5
F1.0471975803375244
tp876
a(F0.5
F-1.0471779108047485
tp877
a(F0.5
F-1.0471975803375244
tp878
a(F0.5
F-1.0471975803375244
tp879
a(F0.5
F-1.0471975803375244
tp880
a(F0.5
F-1.0400842428207397
tp881
a(F0.5
F1.0471975803375244
tp882
a(F0.5
F1.0471317768096924
tp883
a(F0.5
F-1.0471975803375244
tp884
a(F0.5
F-1.0471975803375244
tp885
a(F0.5
F-1.0471975803375244
tp886
a(F0.5
F-1.0471975803375244
tp887
a(F0.5
F-1.0471975803375244
tp888
a(F0.5
F-1.0471975803375244
tp889
a(F0.5
F1.0471975803375244
tp890
a(F0.05000000074505806
F1.0471975803375244
tp891
a(F0.5
F-1.0471975803375244
tp892
a(F0.5
F-1.0471975803375244
tp893
a(F0.5
F-1.0471975803375244
tp894
a(F0.05000000074505806
F0.4011368155479431
tp895
a(F0.05000000074505806
F1.0454401969909668
tp896
a(F0.05000000074505806
F1.0471709966659546
tp897
a(F0.05000000074505806
F-1.0471975803375244
tp898
a(F0.5
F-1.0471975803375244
tp899
a(F0.05000000074505806
F-1.0471975803375244
tp900
a(F0.05000000074505806
F-1.0471975803375244
tp901
a(F0.05000000074505806
F1.0471975803375244
tp902
a(F0.05000000074505806
F1.0471975803375244
tp903
a(F0.05000000074505806
F1.0471975803375244
tp904
a(F0.05000000074505806
F1.0471975803375244
tp905
a(F0.05000000074505806
F-1.0471975803375244
tp906
a(F0.49944937229156494
F-1.0471975803375244
tp907
a(F0.05000000074505806
F1.0471975803375244
tp908
a(F0.05000000074505806
F-1.0471975803375244
tp909
a(F0.05000000074505806
F-1.0471975803375244
tp910
a(F0.05000000074505806
F1.0471975803375244
tp911
a(F0.0
F0.0
tp912
a(F0.05000000074505806
F-1.0471975803375244
tp913
a(F0.05000000074505806
F1.0471975803375244
tp914
a(F0.05000000074505806
F1.0471975803375244
tp915
a(F0.05000000074505806
F1.0471975803375244
tp916
a(F0.05000000074505806
F1.0471975803375244
tp917
a(F0.05000000074505806
F-1.0471975803375244
tp918
a(F0.05000000074505806
F-1.0471975803375244
tp919
a(F0.05000000074505806
F-1.0471975803375244
tp920
a(F0.05000000074505806
F1.0471974611282349
tp921
a(F0.05000000074505806
F1.0471975803375244
tp922
a(F0.05000000074505806
F-1.0426353216171265
tp923
a(F0.05000000074505806
F-1.0471975803375244
tp924
a(F0.05000000074505806
F1.0471975803375244
tp925
a(F0.05000000074505806
F1.0471975803375244
tp926
a(F0.05000000074505806
F-1.0471975803375244
tp927
a(F0.05000000074505806
F1.0471874475479126
tp928
a(F0.05000000074505806
F1.0471975803375244
tp929
a(F0.05000000074505806
F-1.0471975803375244
tp930
a(F0.05000000074505806
F1.0471360683441162
tp931
a(F0.05000000074505806
F1.0471975803375244
tp932
a(F0.05000000074505806
F1.0471975803375244
tp933
a(F0.05000000074505806
F1.0471975803375244
tp934
a(F0.05000000074505806
F1.0471975803375244
tp935
a(F0.0
F0.0
tp936
a(F0.05000000074505806
F1.0471975803375244
tp937
a(F0.05000000074505806
F1.0471975803375244
tp938
a(F0.5
F1.0471975803375244
tp939
a(F0.5
F1.0471975803375244
tp940
a(F0.5
F1.0471975803375244
tp941
a(F0.5
F1.0471975803375244
tp942
a(F0.5
F1.0471975803375244
tp943
a(F0.5
F1.0471975803375244
tp944
a(F0.0
F0.0
tp945
a(F0.5
F1.0471975803375244
tp946
a(F0.5
F1.0471975803375244
tp947
a(F0.0
F0.0
tp948
a(F0.5
F0.9705232977867126
tp949
a(F0.5
F1.0471975803375244
tp950
a(F0.0
F0.0
tp951
a(F0.05000000074505806
F1.0471975803375244
tp952
a(F0.05000000074505806
F1.0471975803375244
tp953
a(F0.05000000074505806
F1.0471975803375244
tp954
a(F0.05000000074505806
F1.0471975803375244
tp955
a(F0.05000000074505806
F1.0471975803375244
tp956
a(F0.05000000074505806
F1.0471975803375244
tp957
a(F0.05000000074505806
F1.0471975803375244
tp958
a(F0.05000000074505806
F1.0471975803375244
tp959
a(F0.05000000074505806
F1.0471975803375244
tp960
a(F0.05000000074505806
F1.0471975803375244
tp961
a(F0.05000000074505806
F1.0471975803375244
tp962
a(F0.05000000074505806
F1.0471975803375244
tp963
a(F0.05000000074505806
F1.0471975803375244
tp964
a(F0.5
F-1.0471975803375244
tp965
a(F0.5
F-1.0471975803375244
tp966
a(F0.5
F-1.0471975803375244
tp967
a(F0.5
F-1.0471975803375244
tp968
a(F0.05000000074505806
F1.0471738576889038
tp969
a(F0.05000000074505806
F1.0471975803375244
tp970
a(F0.05000000074505806
F1.0471975803375244
tp971
a(F0.05000000074505806
F1.0471975803375244
tp972
a(F0.05000000074505806
F-1.0471975803375244
tp973
a(F0.5
F-1.0471975803375244
tp974
a(F0.5
F-1.0471975803375244
tp975
a(F0.5
F-1.0471975803375244
tp976
a(F0.11783085763454437
F-1.0471975803375244
tp977
a(F0.05000000074505806
F1.0471975803375244
tp978
a(F0.05000000074505806
F1.0471975803375244
tp979
a(F0.05000000074505806
F1.0471975803375244
tp980
a(F0.05000000074505806
F1.0471975803375244
tp981
a(F0.05000000074505806
F1.0471975803375244
tp982
a(F0.05000000074505806
F-1.0471975803375244
tp983
a(F0.05000000074505806
F-1.0468652248382568
tp984
a(F0.05000000074505806
F-1.0471975803375244
tp985
a(F0.05000000074505806
F-1.0471975803375244
tp986
a(F0.05000000074505806
F-1.0471975803375244
tp987
a(F0.05000000074505806
F1.0471975803375244
tp988
a(F0.05000000074505806
F1.0471975803375244
tp989
a(F0.05000000074505806
F1.0471975803375244
tp990
a(F0.05000000074505806
F1.0471975803375244
tp991
a(F0.05000000074505806
F-1.0471975803375244
tp992
a(F0.05000000074505806
F-1.0471975803375244
tp993
a(F0.0
F0.0
tp994
a(F0.05000000074505806
F-1.0471975803375244
tp995
a(F0.05000000074505806
F-1.0471975803375244
tp996
a(F0.05000000074505806
F1.0471975803375244
tp997
a(F0.05000000074505806
F1.0471975803375244
tp998
a(F0.05000000074505806
F1.0471975803375244
tp999
a(F0.05000000074505806
F-1.0471975803375244
tp1000
a(F0.05000000074505806
F-1.0471975803375244
tp1001
a(F0.05000000074505806
F-1.0471975803375244
tp1002
a(F0.05000000074505806
F1.0471975803375244
tp1003
a(F0.05000000074505806
F1.0471975803375244
tp1004
a(F0.05000000074505806
F1.0471975803375244
tp1005
a(F0.05000000074505806
F1.0471975803375244
tp1006
a(F0.05000000074505806
F-1.0471975803375244
tp1007
a(F0.0
F0.0
tp1008
a(F0.05000000074505806
F-1.0471972227096558
tp1009
a(F0.0
F0.0
tp1010
a(F0.05000000074505806
F1.0471975803375244
tp1011
a(F0.05000000074505806
F1.0471975803375244
tp1012
a(F0.05000000074505806
F0.9505816698074341
tp1013
a(F0.05000000074505806
F0.9505816698074341
tp1014
a(F0.05000000074505806
F-1.0471975803375244
tp1015
a(F0.05000000074505806
F-1.0471975803375244
tp1016
a(F0.05000000074505806
F1.0471577644348145
tp1017
a(F0.05000000074505806
F1.047188401222229
tp1018
a(F0.05000000074505806
F-0.9570141434669495
tp1019
a(F0.05000000074505806
F-1.0471975803375244
tp1020
a(F0.05000000074505806
F-1.0471975803375244
tp1021
a(F0.05000000074505806
F0.15258416533470154
tp1022
a(F0.05000000074505806
F1.0471975803375244
tp1023
a(F0.05000000074505806
F-1.0447369813919067
tp1024
a(F0.05000000074505806
F-1.0447369813919067
tp1025
a(F0.05000000074505806
F-1.0471971035003662
tp1026
a(F0.05000000074505806
F-1.0471961498260498
tp1027
a(F0.05000000074505806
F1.0471975803375244
tp1028
a(F0.05000000074505806
F1.0471975803375244
tp1029
a(F0.05000000074505806
F1.0471975803375244
tp1030
a(F0.05000000074505806
F1.0471975803375244
tp1031
a(F0.0
F0.0
tp1032
a(F0.0
F0.0
tp1033
a(F0.0
F0.0
tp1034
a(F0.5
F-1.0471975803375244
tp1035
a(F0.5
F-1.0471975803375244
tp1036
a(F0.5
F-1.0471975803375244
tp1037
a(F0.5
F1.0471975803375244
tp1038
a(F0.5
F1.0471975803375244
tp1039
a(F0.0
F0.0
tp1040
a(F0.0
F0.0
tp1041
a(F0.0
F0.0
tp1042
a(F0.0
F0.0
tp1043
a(F0.0
F0.0
tp1044
a(F0.5
F-1.0471975803375244
tp1045
a(F0.5
F1.0471975803375244
tp1046
a(F0.0
F0.0
tp1047
a(F0.5
F1.0471975803375244
tp1048
a(F0.5
F1.0471975803375244
tp1049
a(F0.5
F1.0471975803375244
tp1050
a(F0.0
F0.0
tp1051
a(F0.0
F0.0
tp1052
a(F0.0
F0.0
tp1053
a(F0.0
F0.0
tp1054
a(F0.5
F-1.0471975803375244
tp1055
a(F0.5
F-1.0471975803375244
tp1056
a(F0.0
F0.0
tp1057
a(F0.0
F0.0
tp1058
a(F0.0
F0.0
tp1059
a(F0.0
F0.0
tp1060
a(F0.0
F0.0
tp1061
a(F0.5
F1.0471975803375244
tp1062
a(F0.5
F-1.0471975803375244
tp1063
a(F0.5
F1.0471975803375244
tp1064
a(F0.5
F-1.0471975803375244
tp1065
a(F0.5
F-1.0471975803375244
tp1066
a(F0.5
F-1.0471975803375244
tp1067
a(F0.5
F-1.0471975803375244
tp1068
a(F0.5
F-1.0471975803375244
tp1069
a(F0.5
F1.0471975803375244
tp1070
a(F0.5
F1.0471975803375244
tp1071
a(F0.5
F-1.0471975803375244
tp1072
a(F0.5
F-1.0471975803375244
tp1073
a(F0.5
F-1.0471975803375244
tp1074
a(F0.5
F-1.0471975803375244
tp1075
a(F0.5
F-1.0471975803375244
tp1076
a(F0.5
F-1.0471975803375244
tp1077
a(F0.5
F1.0471975803375244
tp1078
a(F0.5
F1.0471975803375244
tp1079
a(F0.5
F1.0471975803375244
tp1080
a(F0.5
F0.32015693187713623
tp1081
a(F0.5
F-1.0471975803375244
tp1082
a(F0.5
F-1.0471975803375244
tp1083
a(F0.5
F-1.0471975803375244
tp1084
a(F0.5
F-1.0471123456954956
tp1085
a(F0.5
F1.0471975803375244
tp1086
a(F0.5
F1.0471975803375244
tp1087
a(F0.5
F1.0471975803375244
tp1088
a(F0.5
F1.0471975803375244
tp1089
a(F0.0
F0.0
tp1090
a(F0.5
F-1.0471975803375244
tp1091
a(F0.5
F-1.0471975803375244
tp1092
a(F0.5
F-1.0471975803375244
tp1093
a(F0.5
F-1.0471975803375244
tp1094
a(F0.5
F-1.0471975803375244
tp1095
a(F0.5
F-1.0471975803375244
tp1096
a(F0.5
F-1.0471975803375244
tp1097
a(F0.5
F-1.0471975803375244
tp1098
a(F0.0
F0.0
tp1099
a(F0.0
F0.0
tp1100
a(F0.05000000074505806
F1.0471975803375244
tp1101
a(F0.05000000074505806
F1.0471975803375244
tp1102
a(F0.05000000074505806
F1.0471975803375244
tp1103
a(F0.05000000074505806
F1.0471975803375244
tp1104
a(F0.05000000074505806
F1.0471975803375244
tp1105
a(F0.05000000074505806
F1.0471975803375244
tp1106
a(F0.0
F0.0
tp1107
a(F0.0
F0.0
tp1108
a(F0.0
F0.0
tp1109
a(F0.5
F1.0471975803375244
tp1110
a(F0.0
F0.0
tp1111
a(F0.5
F1.0471975803375244
tp1112
a(F0.5
F-1.0471975803375244
tp1113
a(F0.5
F1.0471975803375244
tp1114
a(F0.5
F-1.0471975803375244
tp1115
a(F0.5
F1.0471975803375244
tp1116
a(F0.5
F-1.0471975803375244
tp1117
a(F0.5
F-1.0471975803375244
tp1118
a(F0.5
F-1.0471975803375244
tp1119
a(F0.5
F1.0370343923568726
tp1120
a(F0.5
F-1.0093295574188232
tp1121
a(F0.5
F-1.0471975803375244
tp1122
a(F0.5
F1.0471975803375244
tp1123
a(F0.5
F1.0471975803375244
tp1124
a(F0.5
F1.0471975803375244
tp1125
a(F0.5
F1.0471975803375244
tp1126
a(F0.5
F-1.0471975803375244
tp1127
a(F0.5
F-1.0471975803375244
tp1128
a(F0.5
F-1.0471975803375244
tp1129
a(F0.5
F-1.0471975803375244
tp1130
a(F0.5
F-1.0471975803375244
tp1131
a(F0.5
F-1.0471975803375244
tp1132
a(F0.5
F-0.9933381080627441
tp1133
a(F0.5
F1.0471975803375244
tp1134
a(F0.5
F1.0471975803375244
tp1135
a(F0.5
F1.039906620979309
tp1136
a(F0.5
F-1.0471975803375244
tp1137
a(F0.0
F0.0
tp1138
a(F0.5
F-1.0471798181533813
tp1139
a(F0.5
F0.4887121617794037
tp1140
a(F0.5
F1.047196865081787
tp1141
a(F0.5
F1.047186255455017
tp1142
a(F0.5
F1.0471975803375244
tp1143
a(F0.5
F1.0471975803375244
tp1144
a(F0.0
F0.0
tp1145
a(F0.0
F0.0
tp1146
a(F0.5
F-1.0471975803375244
tp1147
a(F0.5
F-1.0471975803375244
tp1148
a(F0.5
F1.0471975803375244
tp1149
a(F0.5
F-1.0471975803375244
tp1150
a(F0.5
F-1.0471975803375244
tp1151
a(F0.5
F-1.0471975803375244
tp1152
a(F0.0
F0.0
tp1153
a(F0.0
F0.0
tp1154
a(F0.0
F0.0
tp1155
a(F0.0
F0.0
tp1156
a(F0.5
F-1.0471975803375244
tp1157
a(F0.5
F-1.0471975803375244
tp1158
a(F0.5
F1.0471975803375244
tp1159
a(F0.5
F1.0471975803375244
tp1160
a(F0.5
F1.0471975803375244
tp1161
a(F0.5
F1.0471975803375244
tp1162
a(F0.5
F1.0471975803375244
tp1163
a(F0.5
F1.0471975803375244
tp1164
a(F0.5
F1.0471975803375244
tp1165
a(F0.5
F-1.0471975803375244
tp1166
a(F0.5
F-1.0471975803375244
tp1167
a(F0.5
F-1.0471975803375244
tp1168
a(F0.5
F-1.0471971035003662
tp1169
a(F0.5
F-1.0471975803375244
tp1170
a(F0.5
F0.7675477266311646
tp1171
a(F0.5
F1.0471975803375244
tp1172
a(F0.5
F1.0471975803375244
tp1173
a(F0.5
F1.0471975803375244
tp1174
a(F0.5
F-1.047195553779602
tp1175
a(F0.5
F-1.0471975803375244
tp1176
a(F0.5
F-1.0471973419189453
tp1177
a(F0.5
F1.0471974611282349
tp1178
a(F0.0
F0.0
tp1179
a(F0.0
F0.0
tp1180
a(F0.05000000074505806
F1.0471975803375244
tp1181
a(F0.05000000074505806
F1.0471975803375244
tp1182
a(F0.05000000074505806
F1.0471975803375244
tp1183
a(F0.05000000074505806
F1.0471975803375244
tp1184
a(F0.05000000074505806
F1.0471975803375244
tp1185
a(F0.05000000074505806
F1.0471975803375244
tp1186
a(F0.05000000074505806
F1.0471975803375244
tp1187
a(F0.05000000074505806
F1.0471975803375244
tp1188
a(F0.05000000074505806
F1.0471975803375244
tp1189
a(F0.5
F1.0471975803375244
tp1190
a(F0.5
F-1.0471975803375244
tp1191
a(F0.5
F1.0415031909942627
tp1192
a(F0.0
F0.0
tp1193
a(F0.0
F0.0
tp1194
a(F0.0
F0.0
tp1195
a(F0.0
F0.0
tp1196
a(F0.0
F0.0
tp1197
a(F0.0
F0.0
tp1198
a(F0.5
F1.0471975803375244
tp1199
a(F0.5
F1.0471975803375244
tp1200
a(F0.5
F1.0471975803375244
tp1201
a(F0.5
F-1.0471960306167603
tp1202
a(F0.5
F-1.0471975803375244
tp1203
a(F0.0
F0.0
tp1204
a(F0.0
F0.0
tp1205
a(F0.0
F0.0
tp1206
a(F0.0
F0.0
tp1207
a(F0.5
F1.0471975803375244
tp1208
a(F0.5
F1.0471975803375244
tp1209
a(F0.0
F0.0
tp1210
a(F0.5
F1.0471975803375244
tp1211
a(F0.5
F-1.0471975803375244
tp1212
a(F0.5
F-1.0471975803375244
tp1213
a(F0.5
F-1.0471975803375244
tp1214
a(F0.5
F1.0471975803375244
tp1215
a(F0.5
F1.0471975803375244
tp1216
a(F0.5
F1.046850323677063
tp1217
a(F0.5
F-1.0471975803375244
tp1218
a(F0.5
F-1.0471975803375244
tp1219
a(F0.5
F-1.0471975803375244
tp1220
a(F0.5
F-1.0471975803375244
tp1221
a(F0.5
F-1.0471975803375244
tp1222
a(F0.5
F-1.0471975803375244
tp1223
a(F0.5
F-1.0471975803375244
tp1224
a(F0.5
F-1.0471762418746948
tp1225
a(F0.5
F1.0471972227096558
tp1226
a(F0.0
F0.0
tp1227
a(F0.5
F-1.0471975803375244
tp1228
a(F0.5
F1.0471973419189453
tp1229
a(F0.0
F0.0
tp1230
a(F0.5
F-0.9966140389442444
tp1231
a(F0.5
F1.0471975803375244
tp1232
a(F0.5
F1.0461922883987427
tp1233
a(F0.0
F0.0
tp1234
a(F0.0
F0.0
tp1235
a(F0.5
F0.731117308139801
tp1236
a(F0.49999988079071045
F1.0464215278625488
tp1237
a(F0.0
F0.0
tp1238
a(F0.4999997615814209
F-1.0457834005355835
tp1239
a(F0.49999362230300903
F0.9455470442771912
tp1240
a(F0.0665222555398941
F-1.0456280708312988
tp1241
a(F0.05000000074505806
F-1.0471975803375244
tp1242
a(F0.05000000074505806
F-1.0471975803375244
tp1243
a(F0.05000000074505806
F-0.9158656001091003
tp1244
a(F0.05000000074505806
F-0.9736608862876892
tp1245
a(F0.05000000074505806
F-1.0471975803375244
tp1246
a(F0.05000000074505806
F-1.0471975803375244
tp1247
a(F0.05000000074505806
F-1.0471975803375244
tp1248
a(F0.05000000074505806
F1.0471975803375244
tp1249
a(F0.05000000074505806
F1.0471975803375244
tp1250
a(F0.05000000074505806
F1.0471975803375244
tp1251
a(F0.05000000074505806
F1.0471975803375244
tp1252
a(F0.05000000074505806
F1.0471975803375244
tp1253
a(F0.05000000074505806
F-1.0471975803375244
tp1254
a(F0.0
F0.0
tp1255
a(F0.05000000074505806
F-1.0471975803375244
tp1256
a(F0.0
F0.0
tp1257
a(F0.05000000074505806
F1.0471975803375244
tp1258
a(F0.05000000074505806
F1.0471975803375244
tp1259
a(F0.05000000074505806
F1.0471975803375244
tp1260
a(F0.05000000074505806
F-1.0471975803375244
tp1261
a(F0.05000000074505806
F-1.0471975803375244
tp1262
a(F0.14006219804286957
F-1.0471975803375244
tp1263
a(F0.05000000074505806
F-1.0471975803375244
tp1264
a(F0.05000000074505806
F-1.0471975803375244
tp1265
a(F0.05000000074505806
F1.0471975803375244
tp1266
a(F0.05000000074505806
F1.0471975803375244
tp1267
a(F0.05000000074505806
F1.0471975803375244
tp1268
a(F0.05000000074505806
F1.0471975803375244
tp1269
a(F0.05000000074505806
F1.0471975803375244
tp1270
a(F0.05000000074505806
F-1.0471975803375244
tp1271
a(F0.06529688090085983
F-1.0471975803375244
tp1272
a(F0.05000000074505806
F-1.047072410583496
tp1273
a(F0.05000000074505806
F-1.0471975803375244
tp1274
a(F0.05000000074505806
F-0.9536265134811401
tp1275
a(F0.05000000074505806
F1.0471975803375244
tp1276
a(F0.05000000074505806
F1.0471975803375244
tp1277
a(F0.05000000074505806
F1.0471975803375244
tp1278
a(F0.05000000074505806
F1.0471975803375244
tp1279
a(F0.05000000074505806
F1.0471975803375244
tp1280
a(F0.05000000074505806
F-1.0471876859664917
tp1281
a(F0.05000000074505806
F-1.0388619899749756
tp1282
a(F0.05000000074505806
F1.0471975803375244
tp1283
a(F0.05000000074505806
F1.0471975803375244
tp1284
a(F0.05000000074505806
F-1.0471975803375244
tp1285
a(F0.05000000074505806
F1.0471961498260498
tp1286
a(F0.05000000074505806
F1.0471975803375244
tp1287
a(F0.05000000074505806
F1.0471975803375244
tp1288
a(F0.05000000074505806
F1.0471975803375244
tp1289
a(F0.05000000074505806
F1.0471975803375244
tp1290
a(F0.05000000074505806
F1.0471957921981812
tp1291
a(F0.2560573220252991
F1.0471975803375244
tp1292
a(F0.2560573220252991
F1.0471975803375244
tp1293
a(F0.5
F-1.0471612215042114
tp1294
a(F0.5
F-1.0471975803375244
tp1295
a(F0.49999791383743286
F-1.0471941232681274
tp1296
a(F0.05000000074505806
F-1.044126033782959
tp1297
a(F0.05000000074505806
F1.018419861793518
tp1298
a(F0.05000000074505806
F-0.5502922534942627
tp1299
a(F0.05000000074505806
F-1.0471975803375244
tp1300
a(F0.05000000074505806
F0.8395235538482666
tp1301
a(F0.05000000074505806
F1.0471314191818237
tp1302
a(F0.05000000074505806
F1.0471975803375244
tp1303
a(F0.05000000074505806
F1.0471975803375244
tp1304
a(F0.05000000074505806
F1.0471975803375244
tp1305
a(F0.05000000074505806
F1.0471975803375244
tp1306
a(F0.05000000074505806
F1.0471975803375244
tp1307
a(F0.5
F-1.0471975803375244
tp1308
a(F0.5
F-1.0471975803375244
tp1309
a(F0.5
F-1.0471975803375244
tp1310
a(F0.4999898672103882
F-1.0471973419189453
tp1311
a(F0.05000000074505806
F-1.0455163717269897
tp1312
a(F0.05000000074505806
F1.0471975803375244
tp1313
a(F0.05000000074505806
F1.0471761226654053
tp1314
a(F0.05000000074505806
F1.0471975803375244
tp1315
a(F0.05000000074505806
F1.0471975803375244
tp1316
a(F0.05000000074505806
F1.0471975803375244
tp1317
a(F0.05000000074505806
F1.0471975803375244
tp1318
a(F0.05000000074505806
F-0.32433751225471497
tp1319
a(F0.05000000074505806
F1.0471973419189453
tp1320
a(F0.05000000074505806
F1.0471973419189453
tp1321
a(F0.05000000074505806
F1.0471975803375244
tp1322
a(F0.05000000074505806
F1.0471975803375244
tp1323
a(F0.05000000074505806
F1.0471975803375244
tp1324
a(F0.5
F1.0471975803375244
tp1325
a(F0.5
F1.0471941232681274
tp1326
a(F0.5
F1.0471975803375244
tp1327
a(F0.0
F0.0
tp1328
a(F0.0
F0.0
tp1329
a(F0.0
F0.0
tp1330
a(F0.5
F-1.0471975803375244
tp1331
a(F0.5
F-1.0471975803375244
tp1332
a(F0.5
F-1.0471975803375244
tp1333
a(F0.5
F1.0471975803375244
tp1334
a(F0.5
F1.0471975803375244
tp1335
a(F0.5
F-1.0471975803375244
tp1336
a(F0.5
F-1.0471975803375244
tp1337
a(F0.5
F-1.0471975803375244
tp1338
a(F0.5
F1.0471975803375244
tp1339
a(F0.5
F1.0471975803375244
tp1340
a(F0.5
F-1.0471975803375244
tp1341
a(F0.0
F0.0
tp1342
a(F0.0
F0.0
tp1343
a(F0.0
F0.0
tp1344
a(F0.0
F0.0
tp1345
a(F0.5
F1.0471975803375244
tp1346
a(F0.0
F0.0
tp1347
a(F0.0
F0.0
tp1348
a(F0.05000000074505806
F1.0471975803375244
tp1349
a(F0.05000000074505806
F1.0471975803375244
tp1350
a(F0.05000000074505806
F1.0471975803375244
tp1351
a(F0.05000000074505806
F1.0471975803375244
tp1352
a(F0.05000000074505806
F1.0471975803375244
tp1353
a(F0.05000000074505806
F1.0471975803375244
tp1354
a(F0.05000000074505806
F1.0471975803375244
tp1355
a(F0.05000000074505806
F1.0471975803375244
tp1356
a(F0.05000000074505806
F1.0471975803375244
tp1357
a(F0.05000000074505806
F1.0471975803375244
tp1358
a(F0.05000000074505806
F1.0471975803375244
tp1359
a(F0.0
F0.0
tp1360
a(F0.0
F0.0
tp1361
a(F0.0
F0.0
tp1362
a(F0.0
F0.0
tp1363
a(F0.0
F0.0
tp1364
a(F0.5
F1.0471975803375244
tp1365
a(F0.5
F1.0471975803375244
tp1366
a(F0.5
F-1.0471975803375244
tp1367
a(F0.5
F1.0471975803375244
tp1368
a(F0.5
F1.0471975803375244
tp1369
a(F0.5
F1.0471975803375244
tp1370
a(F0.5
F-1.0471975803375244
tp1371
a(F0.5
F1.0471975803375244
tp1372
a(F0.5
F1.0361828804016113
tp1373
a(F0.5
F1.0361828804016113
tp1374
a(F0.5
F-1.0471975803375244
tp1375
a(F0.5
F1.0471975803375244
tp1376
a(F0.5
F1.0471975803375244
tp1377
a(F0.5
F1.0471975803375244
tp1378
a(F0.5
F1.0471975803375244
tp1379
a(F0.5
F-1.0471975803375244
tp1380
a(F0.5
F-1.0471975803375244
tp1381
a(F0.5
F-1.0471975803375244
tp1382
a(F0.5
F-1.0471975803375244
tp1383
a(F0.5
F1.0471975803375244
tp1384
a(F0.5
F1.0471975803375244
tp1385
a(F0.5
F-1.0471975803375244
tp1386
a(F0.5
F-1.0471975803375244
tp1387
a(F0.5
F-1.0471975803375244
tp1388
a(F0.5
F-1.0471975803375244
tp1389
a(F0.5
F-1.0471948385238647
tp1390
a(F0.5
F1.0471975803375244
tp1391
a(F0.5
F1.0471975803375244
tp1392
a(F0.5
F1.0446900129318237
tp1393
a(F0.5
F-1.0471972227096558
tp1394
a(F0.5
F-1.0382171869277954
tp1395
a(F0.5
F-0.9434016346931458
tp1396
a(F0.5
F-0.8667973279953003
tp1397
a(F0.5
F-0.8667973279953003
tp1398
a(F0.5
F1.0471909046173096
tp1399
a(F0.5
F1.0467933416366577
tp1400
a(F0.4999999403953552
F1.0471975803375244
tp1401
a(F0.0
F0.0
tp1402
a(F0.0
F0.0
tp1403
a(F0.0
F0.0
tp1404
a(F0.05000000074505806
F1.0471975803375244
tp1405
a(F0.05000000074505806
F1.0471975803375244
tp1406
a(F0.05000000074505806
F1.0471975803375244
tp1407
a(F0.05000000074505806
F1.0471975803375244
tp1408
a(F0.05000000074505806
F1.0471975803375244
tp1409
a(F0.05000000074505806
F1.0471975803375244
tp1410
a(F0.05390394479036331
F1.0471975803375244
tp1411
a(F0.5
F1.0471975803375244
tp1412
a(F0.5
F1.0471975803375244
tp1413
a(F0.5
F1.0471975803375244
tp1414
a(F0.0
F0.0
tp1415
a(F0.0
F0.0
tp1416
a(F0.0
F0.0
tp1417
a(F0.0
F0.0
tp1418
a(F0.5
F-1.0471975803375244
tp1419
a(F0.5
F-1.0471975803375244
tp1420
a(F0.5
F-1.0471975803375244
tp1421
a(F0.5
F1.0471975803375244
tp1422
a(F0.5
F1.0471975803375244
tp1423
a(F0.5
F-1.0471975803375244
tp1424
a(F0.5
F-1.0466538667678833
tp1425
a(F0.5
F-1.0471975803375244
tp1426
a(F0.5
F-1.0471975803375244
tp1427
a(F0.5
F-1.0437973737716675
tp1428
a(F0.5
F1.0471975803375244
tp1429
a(F0.5
F1.0471975803375244
tp1430
a(F0.5
F1.0471975803375244
tp1431
a(F0.5
F-1.0471975803375244
tp1432
a(F0.5
F-1.0471975803375244
tp1433
a(F0.5
F-1.0471975803375244
tp1434
a(F0.5
F-1.0471975803375244
tp1435
a(F0.5
F-1.0471975803375244
tp1436
a(F0.5
F-1.0471975803375244
tp1437
a(F0.5
F-1.0471975803375244
tp1438
a(F0.5
F1.0471975803375244
tp1439
a(F0.5
F1.0471975803375244
tp1440
a(F0.5
F1.0471975803375244
tp1441
a(F0.5
F1.0471975803375244
tp1442
a(F0.5
F1.0471975803375244
tp1443
a(F0.5
F1.0471975803375244
tp1444
a(F0.05000000074505806
F1.0471975803375244
tp1445
a(F0.05000000074505806
F1.0471975803375244
tp1446
a(F0.05000000074505806
F1.0471975803375244
tp1447
a(F0.05000000074505806
F1.0471975803375244
tp1448
a(F0.05000000074505806
F1.0471975803375244
tp1449
a(F0.05000000074505806
F1.0471975803375244
tp1450
a(F0.05000000074505806
F1.0471975803375244
tp1451
a(F0.05000000074505806
F1.0471975803375244
tp1452
a(F0.05000000074505806
F1.0471975803375244
tp1453
a(F0.05000000074505806
F1.0471975803375244
tp1454
a(F0.05000000074505806
F1.0471975803375244
tp1455
a(F0.05000000074505806
F1.0471975803375244
tp1456
a(F0.05000000074505806
F1.0471975803375244
tp1457
a(F0.05000000074505806
F1.0471975803375244
tp1458
a(F0.05000000074505806
F1.0471975803375244
tp1459
a(F0.05000000074505806
F1.0471975803375244
tp1460
a(F0.05000000074505806
F1.0471975803375244
tp1461
a(F0.05000000074505806
F1.0471975803375244
tp1462
a(F0.05000000074505806
F1.0471975803375244
tp1463
a(F0.5
F1.0471975803375244
tp1464
a(F0.5
F1.0471975803375244
tp1465
a(F0.5
F1.0471975803375244
tp1466
a(F0.5
F1.0471975803375244
tp1467
a(F0.5
F1.0471975803375244
tp1468
a(F0.5
F1.0471975803375244
tp1469
a(F0.5
F0.9629980325698853
tp1470
a(F0.5
F1.0471975803375244
tp1471
a(F0.05000000074505806
F1.0471975803375244
tp1472
a(F0.05000000074505806
F1.0471975803375244
tp1473
a(F0.05000000074505806
F1.0471975803375244
tp1474
a(F0.05000000074505806
F1.0471975803375244
tp1475
a(F0.05000000074505806
F1.0471975803375244
tp1476
a(F0.05000000074505806
F1.0471975803375244
tp1477
a(F0.05000000074505806
F1.0471975803375244
tp1478
a(F0.05000000074505806
F1.0471975803375244
tp1479
a(F0.05000000074505806
F1.0471975803375244
tp1480
a(F0.05000000074505806
F1.0471975803375244
tp1481
a(F0.05000000074505806
F1.0471975803375244
tp1482
a(F0.05000000074505806
F1.0471975803375244
tp1483
a(F0.05000000074505806
F1.0471975803375244
tp1484
a(F0.05000000074505806
F1.0471975803375244
tp1485
a(F0.05000000074505806
F1.0471975803375244
tp1486
a(F0.05000000074505806
F1.0471975803375244
tp1487
a(F0.05000000074505806
F1.0471975803375244
tp1488
a(F0.05000000074505806
F1.0471975803375244
tp1489
a(F0.05000000074505806
F1.0471975803375244
tp1490
a(F0.05000000074505806
F1.0471975803375244
tp1491
a(F0.5
F1.0471975803375244
tp1492
a(F0.48489972949028015
F1.0471975803375244
tp1493
a(F0.5
F1.0471975803375244
tp1494
a(F0.0
F0.0
tp1495
a(F0.0
F0.0
tp1496
a(F0.5
F1.0471975803375244
tp1497
a(F0.5
F1.0471975803375244
tp1498
a(F0.5
F1.0471975803375244
tp1499
a(F0.5
F1.0471975803375244
tp1500
a(F0.5
F1.0471975803375244
tp1501
a(F0.5
F1.0471975803375244
tp1502
a(F0.5
F-1.0471975803375244
tp1503
a(F0.5
F-1.0471975803375244
tp1504
a(F0.5
F-1.0471975803375244
tp1505
a(F0.5
F1.0471975803375244
tp1506
a(F0.5
F1.0471975803375244
tp1507
a(F0.0
F0.0
tp1508
a(F0.0
F0.0
tp1509
a(F0.0
F0.0
tp1510
a(F0.5
F1.0471975803375244
tp1511
a(F0.0
F0.0
tp1512
a(F0.5
F-1.0471975803375244
tp1513
a(F0.5
F-1.0471975803375244
tp1514
a(F0.5
F-1.0471975803375244
tp1515
a(F0.0
F0.0
tp1516
a(F0.5
F-1.0471975803375244
tp1517
a(F0.5
F-1.0471975803375244
tp1518
a(F0.5
F-1.047196626663208
tp1519
a(F0.5
F0.21155685186386108
tp1520
a(F0.5
F1.0466915369033813
tp1521
a(F0.5
F1.04612135887146
tp1522
a(F0.5
F-1.0471975803375244
tp1523
a(F0.5
F-1.0471975803375244
tp1524
a(F0.5
F-1.0471975803375244
tp1525
a(F0.5
F-1.0470408201217651
tp1526
a(F0.5
F1.047196388244629
tp1527
a(F0.5
F-1.0436917543411255
tp1528
a(F0.5
F1.0448893308639526
tp1529
a(F0.5
F-0.9173253774642944
tp1530
a(F0.5
F1.0471975803375244
tp1531
a(F0.5
F1.047179102897644
tp1532
a(F0.5
F1.0471975803375244
tp1533
a(F0.4999982714653015
F1.0471975803375244
tp1534
a(F0.05000000074505806
F1.0471975803375244
tp1535
a(F0.0
F0.0
tp1536
a(F0.0
F0.0
tp1537
a(F0.5
F-1.0471975803375244
tp1538
a(F0.5
F-1.0471975803375244
tp1539
a(F0.5
F-1.0471975803375244
tp1540
a(F0.5
F1.0471975803375244
tp1541
a(F0.5
F1.0471975803375244
tp1542
a(F0.5
F-1.0471975803375244
tp1543
a(F0.5
F-1.0471975803375244
tp1544
a(F0.5
F-1.0471975803375244
tp1545
a(F0.5
F1.0471975803375244
tp1546
a(F0.5
F-1.0471974611282349
tp1547
a(F0.5
F-1.0471975803375244
tp1548
a(F0.5
F-1.0471975803375244
tp1549
a(F0.0
F0.0
tp1550
a(F0.0
F0.0
tp1551
a(F0.0
F0.0
tp1552
a(F0.0
F0.0
tp1553
a(F0.0
F0.0
tp1554
a(F0.0
F0.0
tp1555
a(F0.5
F-1.0471975803375244
tp1556
a(F0.5
F-1.0471975803375244
tp1557
a(F0.5
F-1.0471975803375244
tp1558
a(F0.5
F-1.0471975803375244
tp1559
a(F0.5
F-1.0471975803375244
tp1560
a(F0.5
F1.0471975803375244
tp1561
a(F0.5
F1.0471975803375244
tp1562
a(F0.5
F1.0471975803375244
tp1563
a(F0.5
F1.0193276405334473
tp1564
a(F0.5
F-1.0471975803375244
tp1565
a(F0.0
F0.0
tp1566
a(F0.0
F0.0
tp1567
a(F0.0
F0.0
tp1568
a(F0.5
F-1.0471975803375244
tp1569
a(F0.5
F-1.0471975803375244
tp1570
a(F0.5
F1.0467687845230103
tp1571
a(F0.5
F1.0467687845230103
tp1572
a(F0.5
F1.0471975803375244
tp1573
a(F0.5
F1.0471975803375244
tp1574
a(F0.5
F1.0471975803375244
tp1575
a(F0.5
F1.0471975803375244
tp1576
a(F0.5
F-1.0471975803375244
tp1577
a(F0.5
F-1.0471975803375244
tp1578
a(F0.5
F-1.0471975803375244
tp1579
a(F0.5
F-1.0471975803375244
tp1580
a(F0.5
F-1.0452114343643188
tp1581
a(F0.5
F-0.9645799398422241
tp1582
a(F0.5
F-1.0471975803375244
tp1583
a(F0.5
F1.0471975803375244
tp1584
a(F0.5
F1.0471975803375244
tp1585
a(F0.5
F1.0471975803375244
tp1586
a(F0.5
F1.0471975803375244
tp1587
a(F0.5
F-1.0471898317337036
tp1588
a(F0.5
F-1.0471975803375244
tp1589
a(F0.5
F-1.0471975803375244
tp1590
a(F0.5
F-1.0471975803375244
tp1591
a(F0.5
F-1.0471975803375244
tp1592
a(F0.5
F-1.0471975803375244
tp1593
a(F0.5
F1.0471975803375244
tp1594
a(F0.05000000074505806
F1.0471975803375244
tp1595
a(F0.05000000074505806
F1.0471975803375244
tp1596
a(F0.05000000074505806
F1.0471975803375244
tp1597
a(F0.49999964237213135
F-1.0471975803375244
tp1598
a(F0.0
F0.0
tp1599
a(F0.0
F0.0
tp1600
a(F0.0
F0.0
tp1601
a(F0.5
F1.0471975803375244
tp1602
a(F0.5
F1.0471975803375244
tp1603
a(F0.5
F1.0471975803375244
tp1604
a(F0.5
F1.0471975803375244
tp1605
a(F0.5
F-1.0471975803375244
tp1606
a(F0.5
F-1.0471975803375244
tp1607
a(F0.5
F1.046888828277588
tp1608
a(F0.0
F0.0
tp1609
a(F0.0
F0.0
tp1610
a(F0.0
F0.0
tp1611
a(F0.0
F0.0
tp1612
a(F0.0
F0.0
tp1613
a(F0.5
F1.0471975803375244
tp1614
a(F0.5
F1.0471975803375244
tp1615
a(F0.5
F-1.0427882671356201
tp1616
a(F0.5
F-1.0471975803375244
tp1617
a(F0.0
F0.0
tp1618
a(F0.0
F0.0
tp1619
a(F0.0
F0.0
tp1620
a(F0.0
F0.0
tp1621
a(F0.5
F1.0471975803375244
tp1622
a(F0.5
F-1.0471975803375244
tp1623
a(F0.5
F1.0471975803375244
tp1624
a(F0.0
F0.0
tp1625
a(F0.5
F-1.043717861175537
tp1626
a(F0.5
F1.0471975803375244
tp1627
a(F0.5
F1.0471975803375244
tp1628
a(F0.5
F1.0471975803375244
tp1629
a(F0.5
F1.0471975803375244
tp1630
a(F0.5
F-1.0471975803375244
tp1631
a(F0.5
F-1.0471975803375244
tp1632
a(F0.5
F-1.0471975803375244
tp1633
a(F0.5
F-1.0471975803375244
tp1634
a(F0.5
F-1.0471975803375244
tp1635
a(F0.5
F-1.0471975803375244
tp1636
a(F0.5
F-1.0471975803375244
tp1637
a(F0.5
F-1.0471975803375244
tp1638
a(F0.5
F1.0471975803375244
tp1639
a(F0.5
F1.0471975803375244
tp1640
a(F0.5
F-1.0471975803375244
tp1641
a(F0.5
F-1.0423882007598877
tp1642
a(F0.5
F-1.0471651554107666
tp1643
a(F0.5
F-1.0088335275650024
tp1644
a(F0.0
F0.0
tp1645
a(F0.5
F-1.0471975803375244
tp1646
a(F0.5
F-1.0471975803375244
tp1647
a(F0.5
F1.0471975803375244
tp1648
a(F0.5
F1.0471975803375244
tp1649
a(F0.5
F1.0471975803375244
tp1650
a(F0.5
F-1.0471975803375244
tp1651
a(F0.5
F-1.0471975803375244
tp1652
a(F0.5
F-1.0471975803375244
tp1653
a(F0.5
F-1.0471975803375244
tp1654
a(F0.5
F-1.0471975803375244
tp1655
a(F0.5
F-1.0471975803375244
tp1656
a(F0.5
F0.966214120388031
tp1657
a(F0.05000000074505806
F1.0471975803375244
tp1658
a(F0.05000000074505806
F1.0471975803375244
tp1659
a(F0.05000000074505806
F-1.0471975803375244
tp1660
a(F0.5
F-1.0471975803375244
tp1661
a(F0.5
F-1.0471975803375244
tp1662
a(F0.4999311566352844
F-1.0471975803375244
tp1663
a(F0.05000000074505806
F1.0471975803375244
tp1664
a(F0.05000000074505806
F1.0471975803375244
tp1665
a(F0.05000000074505806
F1.0471975803375244
tp1666
a(F0.05000000074505806
F1.0471975803375244
tp1667
a(F0.05000000074505806
F1.0471975803375244
tp1668
a(F0.05000000074505806
F-1.0471975803375244
tp1669
a(F0.05000000074505806
F-1.0471975803375244
tp1670
a(F0.05000000074505806
F-1.0471975803375244
tp1671
a(F0.05000000074505806
F1.0471975803375244
tp1672
a(F0.05000000074505806
F1.0471975803375244
tp1673
a(F0.05000000074505806
F1.0471975803375244
tp1674
a(F0.05000000074505806
F1.0471975803375244
tp1675
a(F0.05000000074505806
F-1.0471975803375244
tp1676
a(F0.05000000074505806
F-1.0471975803375244
tp1677
a(F0.05000000074505806
F-1.0471975803375244
tp1678
a(F0.05000000074505806
F-1.0471975803375244
tp1679
a(F0.05000000074505806
F1.0471975803375244
tp1680
a(F0.05000000074505806
F1.0471975803375244
tp1681
a(F0.05000000074505806
F1.0471975803375244
tp1682
a(F0.05000000074505806
F1.0471975803375244
tp1683
a(F0.05000000074505806
F-1.0471972227096558
tp1684
a(F0.05000000074505806
F-1.0471975803375244
tp1685
a(F0.05000000074505806
F-1.0471975803375244
tp1686
a(F0.05000000074505806
F1.0471975803375244
tp1687
a(F0.05000000074505806
F1.0471975803375244
tp1688
a(F0.05000000074505806
F1.0471975803375244
tp1689
a(F0.05000000074505806
F1.0471975803375244
tp1690
a(F0.05000000074505806
F-1.0471975803375244
tp1691
a(F0.05000000074505806
F-1.0471975803375244
tp1692
a(F0.05000000074505806
F1.046408772468567
tp1693
a(F0.05000000074505806
F1.046408772468567
tp1694
a(F0.05000000074505806
F-1.0471975803375244
tp1695
a(F0.05000000074505806
F1.0471975803375244
tp1696
a(F0.05000000074505806
F1.0325297117233276
tp1697
a(F0.05000000074505806
F1.0471975803375244
tp1698
a(F0.05000000074505806
F-1.0471975803375244
tp1699
a(F0.0
F0.0
tp1700
a(F0.05000000074505806
F1.0471566915512085
tp1701
a(F0.05000000074505806
F1.0471975803375244
tp1702
a(F0.05000000074505806
F1.0471975803375244
tp1703
a(F0.05000000074505806
F1.0471975803375244
tp1704
a(F0.05000000074505806
F1.0471975803375244
tp1705
a(F0.05000000074505806
F1.0471975803375244
tp1706
a(F0.05000000074505806
F1.0471975803375244
tp1707
a(F0.05000000074505806
F1.0471975803375244
tp1708
a(F0.05000000074505806
F1.0471975803375244
tp1709
a(F0.49969393014907837
F1.0471975803375244
tp1710
a(F0.5
F1.0471975803375244
tp1711
a(F0.5
F1.0471975803375244
tp1712
a(F0.5
F1.0471975803375244
tp1713
a(F0.5
F1.0471975803375244
tp1714
a(F0.0
F0.0
tp1715
a(F0.0
F0.0
tp1716
a(F0.0
F0.0
tp1717
a(F0.5
F-1.0471975803375244
tp1718
a(F0.5
F-1.0471975803375244
tp1719
a(F0.5
F-1.0471975803375244
tp1720
a(F0.5
F1.0471971035003662
tp1721
a(F0.5
F-1.0471975803375244
tp1722
a(F0.5
F-1.0471975803375244
tp1723
a(F0.5
F1.0471975803375244
tp1724
a(F0.5
F1.0471975803375244
tp1725
a(F0.5
F1.0471975803375244
tp1726
a(F0.5
F-1.0471975803375244
tp1727
a(F0.0
F0.0
tp1728
a(F0.0
F0.0
tp1729
a(F0.0
F0.0
tp1730
a(F0.0
F0.0
tp1731
a(F0.0
F0.0
tp1732
a(F0.5
F-1.0469858646392822
tp1733
a(F0.5
F-1.0471975803375244
tp1734
a(F0.5
F-1.0471975803375244
tp1735
a(F0.5
F-1.0471975803375244
tp1736
a(F0.5
F1.0471975803375244
tp1737
a(F0.5
F1.0471975803375244
tp1738
a(F0.0
F0.0
tp1739
a(F0.0
F0.0
tp1740
a(F0.5
F-1.0471975803375244
tp1741
a(F0.5
F-1.0471975803375244
tp1742
a(F0.5
F-1.0471975803375244
tp1743
a(F0.5
F-1.0471975803375244
tp1744
a(F0.5
F-1.0471975803375244
tp1745
a(F0.5
F-0.39354392886161804
tp1746
a(F0.5
F1.0471975803375244
tp1747
a(F0.5
F1.0471975803375244
tp1748
a(F0.5
F1.0471975803375244
tp1749
a(F0.5
F1.0471975803375244
tp1750
a(F0.5
F1.0471975803375244
tp1751
a(F0.47515878081321716
F1.0471975803375244
tp1752
a(F0.0
F0.0
tp1753
a(F0.0
F0.0
tp1754
a(F0.05000000074505806
F1.0471975803375244
tp1755
a(F0.05000000074505806
F1.0471975803375244
tp1756
a(F0.05000000074505806
F1.0471975803375244
tp1757
a(F0.05000000074505806
F1.0471975803375244
tp1758
a(F0.05000000074505806
F1.0471975803375244
tp1759
a(F0.05000000074505806
F1.0471975803375244
tp1760
a(F0.05000000074505806
F1.0471975803375244
tp1761
a(F0.05000000074505806
F1.0471975803375244
tp1762
a(F0.0
F0.0
tp1763
a(F0.0
F0.0
tp1764
a(F0.0
F0.0
tp1765
a(F0.0
F0.0
tp1766
a(F0.0
F0.0
tp1767
a(F0.5
F-1.0471975803375244
tp1768
a(F0.5
F-1.0471975803375244
tp1769
a(F0.0
F0.0
tp1770
a(F0.5
F1.0471975803375244
tp1771
a(F0.5
F-1.0471975803375244
tp1772
a(F0.5
F-1.0471975803375244
tp1773
a(F0.5
F-1.0471975803375244
tp1774
a(F0.5
F-1.0471975803375244
tp1775
a(F0.5
F1.0471975803375244
tp1776
a(F0.5
F1.0471975803375244
tp1777
a(F0.5
F1.0471975803375244
tp1778
a(F0.5
F-1.0471975803375244
tp1779
a(F0.5
F-1.0471975803375244
tp1780
a(F0.5
F-1.0471975803375244
tp1781
a(F0.5
F-1.0471975803375244
tp1782
a(F0.5
F1.0471975803375244
tp1783
a(F0.5
F1.0471975803375244
tp1784
a(F0.5
F-1.0471975803375244
tp1785
a(F0.5
F-1.0471975803375244
tp1786
a(F0.5
F-1.0471975803375244
tp1787
a(F0.5
F1.0471974611282349
tp1788
a(F0.5
F1.0471820831298828
tp1789
a(F0.5
F-1.0423221588134766
tp1790
a(F0.5
F-1.0332329273223877
tp1791
a(F0.5
F1.0471975803375244
tp1792
a(F0.5
F1.0471975803375244
tp1793
a(F0.0
F0.0
tp1794
a(F0.5
F1.0433536767959595
tp1795
a(F0.5
F1.0471975803375244
tp1796
a(F0.5
F-1.0471973419189453
tp1797
a(F0.5
F-1.0471973419189453
tp1798
a(F0.5
F-1.0471975803375244
tp1799
a(F0.0
F0.0
tp1800
a(F0.0
F0.0
tp1801
a(F0.5
F1.0471975803375244
tp1802
a(F0.5
F1.0471975803375244
tp1803
a(F0.5
F1.0471975803375244
tp1804
a(F0.5
F1.0471975803375244
tp1805
a(F0.5
F-1.0471975803375244
tp1806
a(F0.5
F-1.0471975803375244
tp1807
a(F0.0
F0.0
tp1808
a(F0.0
F0.0
tp1809
a(F0.0
F0.0
tp1810
a(F0.0
F0.0
tp1811
a(F0.0
F0.0
tp1812
a(F0.5
F1.0471975803375244
tp1813
a(F0.5
F-1.0471975803375244
tp1814
a(F0.5
F-1.0471975803375244
tp1815
a(F0.5
F1.0471975803375244
tp1816
a(F0.5
F1.0471975803375244
tp1817
a(F0.5
F1.0471975803375244
tp1818
a(F0.5
F1.0471975803375244
tp1819
a(F0.5
F1.0471975803375244
tp1820
a(F0.5
F1.0471975803375244
tp1821
a(F0.5
F-1.0471975803375244
tp1822
a(F0.5
F-1.0471975803375244
tp1823
a(F0.5
F-1.0471975803375244
tp1824
a(F0.5
F-1.0471975803375244
tp1825
a(F0.5
F-1.0471975803375244
tp1826
a(F0.5
F1.011319637298584
tp1827
a(F0.5
F1.0471975803375244
tp1828
a(F0.5
F-0.6361585855484009
tp1829
a(F0.5
F-1.0471975803375244
tp1830
a(F0.5
F-1.0471969842910767
tp1831
a(F0.5
F-1.0471969842910767
tp1832
a(F0.5
F1.0471975803375244
tp1833
a(F0.5
F1.0471975803375244
tp1834
a(F0.5
F1.0433013439178467
tp1835
a(F0.5
F-1.0471975803375244
tp1836
a(F0.5
F-1.0471975803375244
tp1837
a(F0.5
F-1.0471975803375244
tp1838
a(F0.5
F-0.3342110812664032
tp1839
a(F0.5
F1.0471975803375244
tp1840
a(F0.5
F1.0471975803375244
tp1841
a(F0.49999362230300903
F1.0471972227096558
tp1842
a(F0.49813196063041687
F1.0471972227096558
tp1843
a(F0.0
F0.0
tp1844
a(F0.0
F0.0
tp1845
a(F0.5
F-1.0471975803375244
tp1846
a(F0.5
F-1.0471975803375244
tp1847
a(F0.5
F-1.0471975803375244
tp1848
a(F0.4999988079071045
F-1.038129448890686
tp1849
a(F0.05000000074505806
F-1.0471947193145752
tp1850
a(F0.05000000074505806
F-1.0471972227096558
tp1851
a(F0.05000000074505806
F-1.0471975803375244
tp1852
a(F0.34377405047416687
F-1.0471975803375244
tp1853
a(F0.0
F0.0
tp1854
a(F0.0
F0.0
tp1855
a(F0.05000000074505806
F1.0471975803375244
tp1856
a(F0.05000000074505806
F1.0471975803375244
tp1857
a(F0.0
F0.0
tp1858
a(F0.05000000074505806
F1.0471975803375244
tp1859
a(F0.0
F0.0
tp1860
a(F0.0
F0.0
tp1861
a(F0.0
F0.0
tp1862
a(F0.0
F0.0
tp1863
a(F0.05000000074505806
F1.0471975803375244
tp1864
a(F0.05000000074505806
F1.0471975803375244
tp1865
a(F0.05000000074505806
F1.0471975803375244
tp1866
a(F0.05000000074505806
F1.0471975803375244
tp1867
a(F0.05000000074505806
F1.0471975803375244
tp1868
a(F0.05000000074505806
F1.0471975803375244
tp1869
a(F0.5
F1.0471975803375244
tp1870
a(F0.5
F1.0471975803375244
tp1871
a(F0.5
F1.0471975803375244
tp1872
a(F0.5
F1.0471975803375244
tp1873
a(F0.0
F0.0
tp1874
a(F0.5
F-1.0471975803375244
tp1875
a(F0.5
F-1.0471975803375244
tp1876
a(F0.5
F1.0471975803375244
tp1877
a(F0.0
F0.0
tp1878
a(F0.5
F1.0471975803375244
tp1879
a(F0.5
F1.0471975803375244
tp1880
a(F0.5
F1.0471975803375244
tp1881
a(F0.5
F-1.0471975803375244
tp1882
a(F0.5
F1.0471975803375244
tp1883
a(F0.5
F1.0471975803375244
tp1884
a(F0.5
F1.0471975803375244
tp1885
a(F0.5
F1.0471975803375244
tp1886
a(F0.05000000074505806
F1.0471975803375244
tp1887
a(F0.05000000074505806
F1.0471975803375244
tp1888
a(F0.05000000074505806
F1.0471975803375244
tp1889
a(F0.05000000074505806
F1.0471975803375244
tp1890
a(F0.05000000074505806
F1.0471975803375244
tp1891
a(F0.05000000074505806
F1.0471975803375244
tp1892
a(F0.05000000074505806
F1.0471975803375244
tp1893
a(F0.05000000074505806
F1.0471975803375244
tp1894
a(F0.05000000074505806
F1.0471975803375244
tp1895
a(F0.05000000074505806
F1.0471975803375244
tp1896
a(F0.05000000074505806
F1.0471975803375244
tp1897
a(F0.05000000074505806
F1.0471975803375244
tp1898
a(F0.0
F0.0
tp1899
a(F0.05000000074505806
F1.0471975803375244
tp1900
a(F0.5
F1.0471975803375244
tp1901
a(F0.05000000074505806
F1.0471975803375244
tp1902
a(F0.5
F-1.0471975803375244
tp1903
a(F0.5
F-1.0471975803375244
tp1904
a(F0.5
F-1.0471975803375244
tp1905
a(F0.5
F-1.0471975803375244
tp1906
a(F0.05000000074505806
F1.0471975803375244
tp1907
a(F0.05000000074505806
F1.0471975803375244
tp1908
a(F0.05000000074505806
F1.0471975803375244
tp1909
a(F0.05000000074505806
F-1.0471975803375244
tp1910
a(F0.05000000074505806
F1.0471975803375244
tp1911
a(F0.05000000074505806
F-1.0471975803375244
tp1912
a(F0.05000000074505806
F-1.0471975803375244
tp1913
a(F0.05000000074505806
F1.0471975803375244
tp1914
a(F0.05000000074505806
F1.0471975803375244
tp1915
a(F0.05000000074505806
F-1.0471975803375244
tp1916
a(F0.05000000074505806
F-1.0471975803375244
tp1917
a(F0.05000000074505806
F1.0471975803375244
tp1918
a(F0.5
F-1.0471975803375244
tp1919
a(F0.05000000074505806
F1.047175407409668
tp1920
a(F0.0
F0.0
tp1921
a(F0.0
F0.0
tp1922
a(F0.05000000074505806
F1.0471975803375244
tp1923
a(F0.05000000074505806
F1.0471975803375244
tp1924
a(F0.05000000074505806
F1.0471975803375244
tp1925
a(F0.05000000074505806
F-1.0471975803375244
tp1926
a(F0.05000000074505806
F1.0471975803375244
tp1927
a(F0.05000000074505806
F1.0471975803375244
tp1928
a(F0.5
F-1.0471975803375244
tp1929
a(F0.5
F1.0471975803375244
tp1930
a(F0.5
F1.0471975803375244
tp1931
a(F0.5
F1.0471975803375244
tp1932
a(F0.5
F-1.0471975803375244
tp1933
a(F0.5
F-1.0471975803375244
tp1934
a(F0.5
F1.0471975803375244
tp1935
a(F0.05000000074505806
F1.0471975803375244
tp1936
a(F0.05000000074505806
F-1.0471975803375244
tp1937
a(F0.05000000074505806
F1.047188401222229
tp1938
a(F0.5
F-1.0471975803375244
tp1939
a(F0.05000000074505806
F-1.0471975803375244
tp1940
a(F0.05000000074505806
F1.0471975803375244
tp1941
a(F0.05000000074505806
F1.0471975803375244
tp1942
a(F0.05000000074505806
F1.0471975803375244
tp1943
a(F0.05000000074505806
F1.0471975803375244
tp1944
a(F0.05000000074505806
F-1.0471975803375244
tp1945
a(F0.05000000074505806
F-1.009036898612976
tp1946
a(F0.05000000074505806
F1.0471975803375244
tp1947
a(F0.05000000074505806
F1.0471975803375244
tp1948
a(F0.05000000074505806
F1.0471975803375244
tp1949
a(F0.0
F0.0
tp1950
a(F0.0
F0.0
tp1951
a(F0.5
F1.0471975803375244
tp1952
a(F0.5
F1.0471975803375244
tp1953
a(F0.5
F1.0471975803375244
tp1954
a(F0.5
F-1.0471975803375244
tp1955
a(F0.5
F-1.0471975803375244
tp1956
a(F0.5
F1.0471975803375244
tp1957
a(F0.5
F1.0471975803375244
tp1958
a(F0.5
F1.0471975803375244
tp1959
a(F0.5
F1.0471975803375244
tp1960
a(F0.5
F-1.0471975803375244
tp1961
a(F0.5
F1.0471975803375244
tp1962
a(F0.0
F0.0
tp1963
a(F0.0
F0.0
tp1964
a(F0.0
F0.0
tp1965
a(F0.0
F0.0
tp1966
a(F0.5
F0.8522007465362549
tp1967
a(F0.5
F-1.0471975803375244
tp1968
a(F0.5
F-1.0471975803375244
tp1969
a(F0.5
F-1.0471975803375244
tp1970
a(F0.5
F-1.0471975803375244
tp1971
a(F0.5
F-1.0471975803375244
tp1972
a(F0.5
F-1.0471975803375244
tp1973
a(F0.5
F-1.0471975803375244
tp1974
a(F0.5
F-1.0471975803375244
tp1975
a(F0.5
F1.0471975803375244
tp1976
a(F0.5
F1.0471975803375244
tp1977
a(F0.5
F1.0471975803375244
tp1978
a(F0.5
F1.0471975803375244
tp1979
a(F0.5
F1.0471779108047485
tp1980
a(F0.5
F1.0471975803375244
tp1981
a(F0.5
F-1.0471975803375244
tp1982
a(F0.5
F-1.0471975803375244
tp1983
a(F0.5
F-1.0471975803375244
tp1984
a(F0.0
F0.0
tp1985
a(F0.0
F0.0
tp1986
a(F0.0
F0.0
tp1987
a(F0.05000000074505806
F1.0471975803375244
tp1988
a(F0.05000000074505806
F1.0471975803375244
tp1989
a(F0.05000000074505806
F1.0471975803375244
tp1990
a(F0.05000000074505806
F1.0471975803375244
tp1991
a(F0.05000000074505806
F1.0471975803375244
tp1992
a(F0.05000000074505806
F1.0471975803375244
tp1993
a(F0.05000000074505806
F1.0471975803375244
tp1994
a(F0.5
F1.0471975803375244
tp1995
a(F0.5
F1.0471975803375244
tp1996
a(F0.5
F1.0471975803375244
tp1997
a(F0.0
F0.0
tp1998
a(F0.0
F0.0
tp1999
a(F0.0
F0.0
tp2000
a(F0.0
F0.0
tp2001
a(F0.0
F0.0
tp2002
a(F0.0
F0.0
tp2003
a(F0.0
F0.0
tp2004
a(F0.0
F0.0
tp2005
a(F0.5
F1.0471975803375244
tp2006
a(F0.5
F1.0471975803375244
tp2007
a(F0.5
F1.0471975803375244
tp2008
a(F0.5
F-0.9684200286865234
tp2009
a(F0.5
F-1.0471975803375244
tp2010
a(F0.5
F-1.0471975803375244
tp2011
a(F0.5
F-1.0471975803375244
tp2012
a(F0.5
F1.0471975803375244
tp2013
a(F0.5
F1.0471975803375244
tp2014
a(F0.0
F0.0
tp2015
a(F0.0
F0.0
tp2016
a(F0.0
F0.0
tp2017
a(F0.0
F0.0
tp2018
a(F0.5
F0.05463838949799538
tp2019
a(F0.5
F1.0471975803375244
tp2020
a(F0.5
F1.0471975803375244
tp2021
a(F0.5
F1.0471975803375244
tp2022
a(F0.5
F1.0471975803375244
tp2023
a(F0.05000000074505806
F1.0471975803375244
tp2024
a(F0.05000000074505806
F1.0471975803375244
tp2025
a(F0.05000000074505806
F1.0471975803375244
tp2026
a(F0.0
F0.0
tp2027
a(F0.0
F0.0
tp2028
a(F0.0
F0.0
tp2029
a(F0.05000000074505806
F1.0471975803375244
tp2030
a(F0.05000000074505806
F1.0471975803375244
tp2031
a(F0.05000000074505806
F1.0471975803375244
tp2032
a(F0.05000000074505806
F1.0471975803375244
tp2033
a(F0.05000000074505806
F1.0471975803375244
tp2034
a(F0.05000000074505806
F1.0471975803375244
tp2035
a(F0.05000000074505806
F1.0471975803375244
tp2036
a(F0.05000000074505806
F1.0471975803375244
tp2037
a(F0.05000000074505806
F1.0471975803375244
tp2038
a(F0.05000000074505806
F1.0471975803375244
tp2039
a(F0.0
F0.0
tp2040
a(F0.0
F0.0
tp2041
a(F0.0
F0.0
tp2042
a(F0.0
F0.0
tp2043
a(F0.0
F0.0
tp2044
a(F0.5
F1.0471975803375244
tp2045
a(F0.5
F1.0471975803375244
tp2046
a(F0.5
F1.0471975803375244
tp2047
a(F0.5
F1.0471975803375244
tp2048
a(F0.5
F-1.0471975803375244
tp2049
a(F0.5
F-1.0471975803375244
tp2050
a(F0.5
F-1.0471975803375244
tp2051
a(F0.5
F-1.0471975803375244
tp2052
a(F0.4999999403953552
F1.0471975803375244
tp2053
a(F0.48717862367630005
F1.0471975803375244
tp2054
a(F0.5
F1.0471975803375244
tp2055
a(F0.5
F1.0471975803375244
tp2056
a(F0.5
F1.0471975803375244
tp2057
a(F0.5
F1.0471975803375244
tp2058
a(F0.5
F1.0471975803375244
tp2059
a(F0.5
F-1.0471975803375244
tp2060
a(F0.5
F-1.0471975803375244
tp2061
a(F0.5
F-1.0471975803375244
tp2062
a(F0.5
F1.0471975803375244
tp2063
a(F0.0
F0.0
tp2064
a(F0.5
F1.0471975803375244
tp2065
a(F0.5
F-1.0471975803375244
tp2066
a(F0.5
F-1.0471975803375244
tp2067
a(F0.5
F-1.0471975803375244
tp2068
a(F0.5
F-1.0471975803375244
tp2069
a(F0.5
F0.7435751557350159
tp2070
a(F0.5
F-1.0471973419189453
tp2071
a(F0.5
F-1.0471975803375244
tp2072
a(F0.5
F0.794495701789856
tp2073
a(F0.5
F1.0471975803375244
tp2074
a(F0.5
F1.0471975803375244
tp2075
a(F0.5
F1.0471975803375244
tp2076
a(F0.5
F-1.0471975803375244
tp2077
a(F0.5
F-1.0471975803375244
tp2078
a(F0.5
F-1.0471975803375244
tp2079
a(F0.5
F1.0310051441192627
tp2080
a(F0.49999767541885376
F1.0471975803375244
tp2081
a(F0.49567580223083496
F1.0471975803375244
tp2082
a(F0.4786742925643921
F1.0471975803375244
tp2083
a(F0.5
F1.040852665901184
tp2084
a(F0.5
F-1.0471975803375244
tp2085
a(F0.5
F-1.0471975803375244
tp2086
a(F0.5
F-1.0471975803375244
tp2087
a(F0.5
F-1.0471975803375244
tp2088
a(F0.0
F0.0
tp2089
a(F0.0
F0.0
tp2090
a(F0.0
F0.0
tp2091
a(F0.05000000074505806
F1.0471975803375244
tp2092
a(F0.05000000074505806
F1.0471975803375244
tp2093
a(F0.05000000074505806
F1.0471975803375244
tp2094
a(F0.05000000074505806
F1.0471975803375244
tp2095
a(F0.05000000074505806
F1.0471975803375244
tp2096
a(F0.05000000074505806
F1.0471975803375244
tp2097
a(F0.05000000074505806
F1.0471975803375244
tp2098
a(F0.05000000074505806
F1.0471975803375244
tp2099
a(F0.5
F1.0471975803375244
tp2100
a(F0.5
F1.0471975803375244
tp2101
a(F0.5
F1.0471975803375244
tp2102
a(F0.0
F0.0
tp2103
a(F0.0
F0.0
tp2104
a(F0.0
F0.0
tp2105
a(F0.0
F0.0
tp2106
a(F0.5
F-1.0471975803375244
tp2107
a(F0.5
F-1.0471975803375244
tp2108
a(F0.0
F0.0
tp2109
a(F0.5
F-1.0471975803375244
tp2110
a(F0.5
F1.0471975803375244
tp2111
a(F0.5
F1.0471975803375244
tp2112
a(F0.5
F1.0471975803375244
tp2113
a(F0.5
F1.0471975803375244
tp2114
a(F0.5
F-1.0471975803375244
tp2115
a(F0.5
F-1.0471975803375244
tp2116
a(F0.5
F1.0471975803375244
tp2117
a(F0.5
F1.0471975803375244
tp2118
a(F0.5
F1.0471975803375244
tp2119
a(F0.5
F1.0471975803375244
tp2120
a(F0.5
F-1.0471638441085815
tp2121
a(F0.5
F1.0471975803375244
tp2122
a(F0.5
F1.0471975803375244
tp2123
a(F0.5
F1.0471975803375244
tp2124
a(F0.5
F1.0471975803375244
tp2125
a(F0.5
F1.0471975803375244
tp2126
a(F0.5
F1.0471975803375244
tp2127
a(F0.5
F1.0471975803375244
tp2128
a(F0.5
F1.0471975803375244
tp2129
a(F0.5
F1.0471975803375244
tp2130
a(F0.5
F1.0471975803375244
tp2131
a(F0.5
F-1.0471975803375244
tp2132
a(F0.05000000074505806
F1.0471975803375244
tp2133
a(F0.05000000074505806
F1.0471975803375244
tp2134
a(F0.05000000074505806
F1.0471975803375244
tp2135
a(F0.5
F-1.0471975803375244
tp2136
a(F0.5
F1.0471975803375244
tp2137
a(F0.5
F1.0471975803375244
tp2138
a(F0.05000000074505806
F1.0471975803375244
tp2139
a(F0.05000000074505806
F1.0471975803375244
tp2140
a(F0.05000000074505806
F1.0471975803375244
tp2141
a(F0.05000000074505806
F1.0471975803375244
tp2142
a(F0.05000000074505806
F1.0471975803375244
tp2143
a(F0.05000000074505806
F1.0471975803375244
tp2144
a(F0.05000000074505806
F1.0471975803375244
tp2145
a(F0.05000000074505806
F1.0471975803375244
tp2146
a(F0.05000000074505806
F1.0471975803375244
tp2147
a(F0.05000000074505806
F1.0471975803375244
tp2148
a(F0.05000000074505806
F1.0471975803375244
tp2149
a(F0.05000000074505806
F1.0471975803375244
tp2150
a(F0.0
F0.0
tp2151
a(F0.0
F0.0
tp2152
a(F0.05000000074505806
F1.0471975803375244
tp2153
a(F0.05000000074505806
F1.0471975803375244
tp2154
a(F0.05000000074505806
F1.0471975803375244
tp2155
a(F0.05000000074505806
F1.0471975803375244
tp2156
a(F0.05000000074505806
F1.0471975803375244
tp2157
a(F0.05000000074505806
F1.0471975803375244
tp2158
a(F0.05000000074505806
F1.0471975803375244
tp2159
a(F0.05000000074505806
F1.0471975803375244
tp2160
a(F0.05000000074505806
F1.0471975803375244
tp2161
a(F0.05000000074505806
F1.0471975803375244
tp2162
a(F0.05000000074505806
F1.0471975803375244
tp2163
a(F0.0
F0.0
tp2164
a(F0.0
F0.0
tp2165
a(F0.0
F0.0
tp2166
a(F0.0
F0.0
tp2167
a(F0.0
F0.0
tp2168
a(F0.0
F0.0
tp2169
a(F0.0
F0.0
tp2170
a(F0.5
F1.0471975803375244
tp2171
a(F0.5
F1.0471975803375244
tp2172
a(F0.5
F1.0471975803375244
tp2173
a(F0.5
F-1.0471975803375244
tp2174
a(F0.5
F1.0471975803375244
tp2175
a(F0.5
F1.0471975803375244
tp2176
a(F0.5
F1.0471975803375244
tp2177
a(F0.5
F-1.0471975803375244
tp2178
a(F0.5
F1.0471975803375244
tp2179
a(F0.5
F1.0471975803375244
tp2180
a(F0.5
F1.0471975803375244
tp2181
a(F0.5
F1.0471975803375244
tp2182
a(F0.5
F-1.0471975803375244
tp2183
a(F0.5
F-1.0471975803375244
tp2184
a(F0.5
F-1.0471975803375244
tp2185
a(F0.5
F-1.0471975803375244
tp2186
a(F0.5
F-1.0471975803375244
tp2187
a(F0.5
F1.0471975803375244
tp2188
a(F0.5
F-1.0471975803375244
tp2189
a(F0.5
F-1.0471975803375244
tp2190
a(F0.5
F-1.0471975803375244
tp2191
a(F0.5
F0.9625930786132812
tp2192
a(F0.5
F1.0471975803375244
tp2193
a(F0.5
F1.0471975803375244
tp2194
a(F0.5
F0.9710834622383118
tp2195
a(F0.0
F0.0
tp2196
a(F0.0
F0.0
tp2197
a(F0.0
F0.0
tp2198
a(F0.0
F0.0
tp2199
a(F0.5
F-1.0470895767211914
tp2200
a(F0.5
F1.0471975803375244
tp2201
a(F0.5
F1.0471975803375244
tp2202
a(F0.0
F0.0
tp2203
a(F0.0
F0.0
tp2204
a(F0.0
F0.0
tp2205
a(F0.0
F0.0
tp2206
a(F0.0
F0.0
tp2207
a(F0.0
F0.0
tp2208
a(F0.0
F0.0
tp2209
a(F0.0
F0.0
tp2210
a(F0.0
F0.0
tp2211
a(F0.5
F1.0471975803375244
tp2212
a(F0.5
F-1.0471975803375244
tp2213
a(F0.5
F-1.0471975803375244
tp2214
a(F0.5
F-1.0471975803375244
tp2215
a(F0.5
F-1.0471975803375244
tp2216
a(F0.5
F-1.0471975803375244
tp2217
a(F0.5
F1.0471975803375244
tp2218
a(F0.5
F1.0471975803375244
tp2219
a(F0.5
F-1.0471975803375244
tp2220
a(F0.5
F-1.0471975803375244
tp2221
a(F0.5
F1.0471203327178955
tp2222
a(F0.5
F1.0471975803375244
tp2223
a(F0.5
F1.0471975803375244
tp2224
a(F0.5
F-1.0471975803375244
tp2225
a(F0.5
F-1.0471975803375244
tp2226
a(F0.5
F-1.0471975803375244
tp2227
a(F0.5
F-1.0471975803375244
tp2228
a(F0.0
F0.0
tp2229
a(F0.0
F0.0
tp2230
a(F0.5
F-1.0471975803375244
tp2231
a(F0.5
F-1.0471975803375244
tp2232
a(F0.5
F-0.8907023072242737
tp2233
a(F0.5
F-1.046715497970581
tp2234
a(F0.5
F-1.046715497970581
tp2235
a(F0.5
F1.0471975803375244
tp2236
a(F0.5
F1.0471975803375244
tp2237
a(F0.5
F1.0471975803375244
tp2238
a(F0.0
F0.0
tp2239
a(F0.0
F0.0
tp2240
a(F0.05000000074505806
F1.0471975803375244
tp2241
a(F0.0
F0.0
tp2242
a(F0.0
F0.0
tp2243
a(F0.0
F0.0
tp2244
a(F0.0
F0.0
tp2245
a(F0.0
F0.0
tp2246
a(F0.0
F0.0
tp2247
a(F0.5
F1.0471975803375244
tp2248
a(F0.0
F0.0
tp2249
a(F0.0
F0.0
tp2250
a(F0.5
F1.0471975803375244
tp2251
a(F0.5
F1.0471975803375244
tp2252
a(F0.5
F-1.0471975803375244
tp2253
a(F0.5
F1.0471975803375244
tp2254
a(F0.5
F-1.0471975803375244
tp2255
a(F0.5
F-1.0471975803375244
tp2256
a(F0.5
F1.0471796989440918
tp2257
a(F0.5
F1.0454058647155762
tp2258
a(F0.5
F-1.0471975803375244
tp2259
a(F0.0
F0.0
tp2260
a(F0.0
F0.0
tp2261
a(F0.5
F1.0471975803375244
tp2262
a(F0.5
F1.0471975803375244
tp2263
a(F0.5
F1.0471975803375244
tp2264
a(F0.5
F1.0471975803375244
tp2265
a(F0.5
F-1.0471975803375244
tp2266
a(F0.0
F0.0
tp2267
a(F0.5
F-1.0471975803375244
tp2268
a(F0.5
F1.0471975803375244
tp2269
a(F0.5
F1.0432347059249878
tp2270
a(F0.5
F-1.0471975803375244
tp2271
a(F0.5
F-1.0471975803375244
tp2272
a(F0.5
F-1.0471975803375244
tp2273
a(F0.5
F1.0119965076446533
tp2274
a(F0.5
F1.0471975803375244
tp2275
a(F0.5
F1.0471975803375244
tp2276
a(F0.5
F1.0471971035003662
tp2277
a(F0.5
F-1.0471975803375244
tp2278
a(F0.5
F-1.0471975803375244
tp2279
a(F0.5
F1.0471974611282349
tp2280
a(F0.0
F0.0
tp2281
a(F0.0
F0.0
tp2282
a(F0.0
F0.0
tp2283
a(F0.0
F0.0
tp2284
a(F0.0
F0.0
tp2285
a(F0.0
F0.0
tp2286
a(F0.0
F0.0
tp2287
a(F0.05000000074505806
F1.0471975803375244
tp2288
a(F0.0
F0.0
tp2289
a(F0.05000000074505806
F1.0471975803375244
tp2290
a(F0.5
F1.0471975803375244
tp2291
a(F0.5
F1.0471975803375244
tp2292
a(F0.5
F1.0471975803375244
tp2293
a(F0.5
F-1.0471975803375244
tp2294
a(F0.5
F1.0471975803375244
tp2295
a(F0.5
F1.0471975803375244
tp2296
a(F0.5
F1.0471975803375244
tp2297
a(F0.5
F1.0471975803375244
tp2298
a(F0.5
F1.0471975803375244
tp2299
a(F0.5
F-1.0471975803375244
tp2300
a(F0.5
F-1.0471975803375244
tp2301
a(F0.0
F0.0
tp2302
a(F0.0
F0.0
tp2303
a(F0.5
F-1.0471975803375244
tp2304
a(F0.5
F-1.0471975803375244
tp2305
a(F0.5
F-1.0471975803375244
tp2306
a(F0.5
F-1.0471975803375244
tp2307
a(F0.5
F1.0471975803375244
tp2308
a(F0.5
F1.0471975803375244
tp2309
a(F0.5
F-1.0471975803375244
tp2310
a(F0.5
F1.0471975803375244
tp2311
a(F0.5
F1.0471975803375244
tp2312
a(F0.5
F1.0471975803375244
tp2313
a(F0.05000000074505806
F1.0471975803375244
tp2314
a(F0.0
F0.0
tp2315
a(F0.0
F0.0
tp2316
a(F0.0
F0.0
tp2317
a(F0.0
F0.0
tp2318
a(F0.5
F-1.0471975803375244
tp2319
a(F0.0
F0.0
tp2320
a(F0.5
F-1.0471975803375244
tp2321
a(F0.5
F1.0471975803375244
tp2322
a(F0.5
F-1.0471975803375244
tp2323
a(F0.0
F0.0
tp2324
a(F0.5
F-1.0471975803375244
tp2325
a(F0.5
F-1.0471975803375244
tp2326
a(F0.5
F-1.0468323230743408
tp2327
a(F0.5
F-1.0468323230743408
tp2328
a(F0.5
F1.0471975803375244
tp2329
a(F0.5
F-1.0471975803375244
tp2330
a(F0.5
F-1.0471975803375244
tp2331
a(F0.5
F-1.0471975803375244
tp2332
a(F0.5
F-1.0471975803375244
tp2333
a(F0.5
F1.0471975803375244
tp2334
a(F0.5
F1.0471975803375244
tp2335
a(F0.5
F-1.0471974611282349
tp2336
a(F0.5
F1.0035792589187622
tp2337
a(F0.5
F1.0471975803375244
tp2338
a(F0.5
F-1.0471975803375244
tp2339
a(F0.5
F-1.0471975803375244
tp2340
a(F0.5
F-1.0471975803375244
tp2341
a(F0.5
F-1.047140121459961
tp2342
a(F0.5
F1.0471975803375244
tp2343
a(F0.0
F0.0
tp2344
a(F0.0
F0.0
tp2345
a(F0.5
F-0.4910798966884613
tp2346
a(F0.5
F-1.0471975803375244
tp2347
a(F0.5
F-1.0471975803375244
tp2348
a(F0.5
F-0.9737492203712463
tp2349
a(F0.4913439452648163
F1.0471975803375244
tp2350
a(F0.05000000074505806
F1.0471975803375244
tp2351
a(F0.05000000074505806
F1.0471975803375244
tp2352
a(F0.0
F0.0
tp2353
a(F0.05000000074505806
F1.0471975803375244
tp2354
a(F0.05000000074505806
F1.0471975803375244
tp2355
a(F0.05000000074505806
F1.0471975803375244
tp2356
a(F0.05000000074505806
F1.0471975803375244
tp2357
a(F0.05000000074505806
F1.0471975803375244
tp2358
a(F0.05000000074505806
F1.0471975803375244
tp2359
a(F0.0
F0.0
tp2360
a(F0.05000000074505806
F1.0471975803375244
tp2361
a(F0.05000000074505806
F1.0471975803375244
tp2362
a(F0.05000000074505806
F1.0471975803375244
tp2363
a(F0.0
F0.0
tp2364
a(F0.05000000074505806
F1.0471975803375244
tp2365
a(F0.05000000074505806
F1.0471975803375244
tp2366
a(F0.05000000074505806
F1.0471975803375244
tp2367
a(F0.05000000074505806
F1.0471975803375244
tp2368
a(F0.05000000074505806
F1.0471975803375244
tp2369
a(F0.05000000074505806
F1.0471975803375244
tp2370
a(F0.5
F1.0471975803375244
tp2371
a(F0.5
F1.0471975803375244
tp2372
a(F0.5
F1.0471975803375244
tp2373
a(F0.5
F1.0471975803375244
tp2374
a(F0.0
F0.0
tp2375
a(F0.0
F0.0
tp2376
a(F0.5
F1.0471975803375244
tp2377
a(F0.5
F1.0471975803375244
tp2378
a(F0.5
F1.0471975803375244
tp2379
a(F0.5
F-1.0471975803375244
tp2380
a(F0.5
F-1.0471975803375244
tp2381
a(F0.5
F-1.0471975803375244
tp2382
a(F0.5
F1.0471975803375244
tp2383
a(F0.5
F1.0471975803375244
tp2384
a(F0.5
F-1.0471975803375244
tp2385
a(F0.5
F-1.0471975803375244
tp2386
a(F0.5
F1.0471975803375244
tp2387
a(F0.5
F1.0471975803375244
tp2388
a(F0.0
F0.0
tp2389
a(F0.0
F0.0
tp2390
a(F0.0
F0.0
tp2391
a(F0.5
F1.0471974611282349
tp2392
a(F0.0
F0.0
tp2393
a(F0.5
F-1.0438079833984375
tp2394
a(F0.5
F1.0471975803375244
tp2395
a(F0.5
F-1.0470960140228271
tp2396
a(F0.5
F-1.0471975803375244
tp2397
a(F0.5
F-1.0471975803375244
tp2398
a(F0.5
F-1.0471975803375244
tp2399
a(F0.5
F-1.0471975803375244
tp2400
a(F0.5
F1.0471975803375244
tp2401
a(F0.5
F1.0471975803375244
tp2402
a(F0.5
F1.0471975803375244
tp2403
a(F0.5
F1.047041654586792
tp2404
a(F0.5
F-1.0471975803375244
tp2405
a(F0.5
F-1.0471975803375244
tp2406
a(F0.5
F-1.0471975803375244
tp2407
a(F0.5
F-1.0471975803375244
tp2408
a(F0.5
F1.0471975803375244
tp2409
a(F0.5
F1.0471975803375244
tp2410
a(F0.0
F0.0
tp2411
a(F0.5
F0.6311550140380859
tp2412
a(F0.5
F-0.9190202355384827
tp2413
a(F0.0
F0.0
tp2414
a(F0.5
F0.7140417695045471
tp2415
a(F0.0
F0.0
tp2416
a(F0.5
F0.9967340230941772
tp2417
a(F0.5
F0.9967340230941772
tp2418
a(F0.5
F-0.16403734683990479
tp2419
a(F0.5
F-0.16403734683990479
tp2420
a(F0.5
F-1.0471819639205933
tp2421
a(F0.5
F-1.0470985174179077
tp2422
a(F0.5
F1.0305306911468506
tp2423
a(F0.5
F0.8339210152626038
tp2424
a(F0.5
F1.044463038444519
tp2425
a(F0.4995715618133545
F1.0471974611282349
tp2426
a(F0.5
F-1.0232601165771484
tp2427
a(F0.5
F-1.047184944152832
tp2428
a(F0.5
F-1.0471969842910767
tp2429
a(F0.0
F0.0
tp2430
a(F0.0
F0.0
tp2431
a(F0.0
F0.0
tp2432
a(F0.05000000074505806
F1.0471975803375244
tp2433
a(F0.05000000074505806
F1.0471975803375244
tp2434
a(F0.05000000074505806
F1.0471975803375244
tp2435
a(F0.05000000074505806
F1.0471975803375244
tp2436
a(F0.05000000074505806
F1.0471975803375244
tp2437
a(F0.05000000074505806
F1.0471975803375244
tp2438
a(F0.05000000074505806
F1.0471975803375244
tp2439
a(F0.5
F1.0471975803375244
tp2440
a(F0.5
F1.0471975803375244
tp2441
a(F0.5
F1.0471975803375244
tp2442
a(F0.0
F0.0
tp2443
a(F0.0
F0.0
tp2444
a(F0.0
F0.0
tp2445
a(F0.0
F0.0
tp2446
a(F0.0
F0.0
tp2447
a(F0.0
F0.0
tp2448
a(F0.0
F0.0
tp2449
a(F0.0
F0.0
tp2450
a(F0.0
F0.0
tp2451
a(F0.0
F0.0
tp2452
a(F0.05000000074505806
F1.0471975803375244
tp2453
a(F0.05000000074505806
F1.0471975803375244
tp2454
a(F0.0
F0.0
tp2455
a(F0.0
F0.0
tp2456
a(F0.0
F0.0
tp2457
a(F0.0
F0.0
tp2458
a(F0.0
F0.0
tp2459
a(F0.5
F1.0471975803375244
tp2460
a(F0.5
F1.0471975803375244
tp2461
a(F0.5
F1.0471975803375244
tp2462
a(F0.5
F1.0471975803375244
tp2463
a(F0.5
F-1.0471975803375244
tp2464
a(F0.5
F-1.0471975803375244
tp2465
a(F0.0
F0.0
tp2466
a(F0.5
F1.0471975803375244
tp2467
a(F0.5
F1.0471975803375244
tp2468
a(F0.0
F0.0
tp2469
a(F0.0
F0.0
tp2470
a(F0.0
F0.0
tp2471
a(F0.0
F0.0
tp2472
a(F0.0
F0.0
tp2473
a(F0.0
F0.0
tp2474
a(F0.0
F0.0
tp2475
a(F0.0
F0.0
tp2476
a(F0.5
F1.0471975803375244
tp2477
a(F0.5
F-1.0471975803375244
tp2478
a(F0.5
F-1.0471975803375244
tp2479
a(F0.5
F1.0471975803375244
tp2480
a(F0.5
F1.0471975803375244
tp2481
a(F0.5
F1.0461851358413696
tp2482
a(F0.5
F-1.0471975803375244
tp2483
a(F0.5
F1.0471975803375244
tp2484
a(F0.5
F-1.0471975803375244
tp2485
a(F0.5
F-1.0471975803375244
tp2486
a(F0.5
F-1.0471975803375244
tp2487
a(F0.5
F1.0471975803375244
tp2488
a(F0.5
F1.0471975803375244
tp2489
a(F0.5
F-1.0471975803375244
tp2490
a(F0.5
F-1.0471975803375244
tp2491
a(F0.5
F-1.0471975803375244
tp2492
a(F0.5
F-1.0471974611282349
tp2493
a(F0.5
F-1.0471975803375244
tp2494
a(F0.5
F-1.0471975803375244
tp2495
a(F0.5
F-1.0471975803375244
tp2496
a(F0.5
F-1.0471975803375244
tp2497
a(F0.0
F0.0
tp2498
a(F0.0
F0.0
tp2499
a(F0.0
F0.0
tp2500
a(F0.5
F-1.0471975803375244
tp2501
a(F0.5
F-0.6752410531044006
tp2502
a(F0.5
F1.0471853017807007
tp2503
a(F0.5
F1.0471853017807007
tp2504
a(F0.5
F-0.2719842791557312
tp2505
a(F0.5
F1.0471975803375244
tp2506
a(F0.0
F0.0
tp2507
a(F0.0
F0.0
tp2508
a(F0.05000000074505806
F1.0471975803375244
tp2509
a(F0.0
F0.0
tp2510
a(F0.0
F0.0
tp2511
a(F0.05000000074505806
F1.0471975803375244
tp2512
a(F0.05000000074505806
F1.0471975803375244
tp2513
a(F0.0
F0.0
tp2514
a(F0.0
F0.0
tp2515
a(F0.0
F0.0
tp2516
a(F0.0
F0.0
tp2517
a(F0.05000000074505806
F1.0471975803375244
tp2518
a(F0.05000000074505806
F1.0471975803375244
tp2519
a(F0.05000000074505806
F1.0471975803375244
tp2520
a(F0.05000000074505806
F1.0471975803375244
tp2521
a(F0.05000000074505806
F1.0471975803375244
tp2522
a(F0.5
F1.0471975803375244
tp2523
a(F0.5
F1.0471975803375244
tp2524
a(F0.5
F1.0471975803375244
tp2525
a(F0.5
F1.0471975803375244
tp2526
a(F0.5
F-1.0341551303863525
tp2527
a(F0.5
F-1.0471975803375244
tp2528
a(F0.5
F1.0471975803375244
tp2529
a(F0.5
F1.0471975803375244
tp2530
a(F0.5
F1.0471975803375244
tp2531
a(F0.5
F1.0471975803375244
tp2532
a(F0.5
F-1.0471975803375244
tp2533
a(F0.5
F1.0471975803375244
tp2534
a(F0.5
F-1.0471975803375244
tp2535
a(F0.5
F1.0471975803375244
tp2536
a(F0.5
F1.0471975803375244
tp2537
a(F0.5
F-1.0385621786117554
tp2538
a(F0.5
F-1.0471975803375244
tp2539
a(F0.5
F1.0471975803375244
tp2540
a(F0.5
F1.0471975803375244
tp2541
a(F0.5
F-1.0471975803375244
tp2542
a(F0.5
F-1.0471975803375244
tp2543
a(F0.5
F-1.0471975803375244
tp2544
a(F0.5
F-1.0471975803375244
tp2545
a(F0.5
F-1.0471975803375244
tp2546
a(F0.5
F1.0471975803375244
tp2547
a(F0.5
F1.0471975803375244
tp2548
a(F0.5
F-1.0471975803375244
tp2549
a(F0.5
F-1.0471975803375244
tp2550
a(F0.5
F-1.0471975803375244
tp2551
a(F0.5
F-1.0471975803375244
tp2552
a(F0.5
F-1.0471975803375244
tp2553
a(F0.5
F-1.0471975803375244
tp2554
a(F0.5
F1.0471975803375244
tp2555
a(F0.5
F1.0471975803375244
tp2556
a(F0.5
F1.0471975803375244
tp2557
a(F0.5
F0.3918452858924866
tp2558
a(F0.5
F-1.0471975803375244
tp2559
a(F0.5
F-1.0471975803375244
tp2560
a(F0.0
F0.0
tp2561
a(F0.5
F-1.0471975803375244
tp2562
a(F0.0
F0.0
tp2563
a(F0.5
F1.0471383333206177
tp2564
a(F0.5
F1.0471975803375244
tp2565
a(F0.5
F-1.0471975803375244
tp2566
a(F0.0
F0.0
tp2567
a(F0.0
F0.0
tp2568
a(F0.5
F-1.0471975803375244
tp2569
a(F0.5
F-1.0471975803375244
tp2570
a(F0.5
F-1.0471975803375244
tp2571
a(F0.5
F-1.0471975803375244
tp2572
a(F0.5
F-1.0471975803375244
tp2573
a(F0.5
F1.0471975803375244
tp2574
a(F0.5
F1.0471975803375244
tp2575
a(F0.5
F1.0471975803375244
tp2576
a(F0.5
F-1.0471975803375244
tp2577
a(F0.5
F-1.0471975803375244
tp2578
a(F0.5
F-1.0471975803375244
tp2579
a(F0.5
F-1.0471975803375244
tp2580
a(F0.0
F0.0
tp2581
a(F0.0
F0.0
tp2582
a(F0.0
F0.0
tp2583
a(F0.0
F0.0
tp2584
a(F0.5
F1.0471975803375244
tp2585
a(F0.5
F1.0471975803375244
tp2586
a(F0.5
F1.0446804761886597
tp2587
a(F0.5
F-1.0471975803375244
tp2588
a(F0.5
F-1.0471975803375244
tp2589
a(F0.5
F-1.0471975803375244
tp2590
a(F0.5
F-1.0471975803375244
tp2591
a(F0.5
F-1.0471887588500977
tp2592
a(F0.5
F-1.0471975803375244
tp2593
a(F0.5
F1.0471975803375244
tp2594
a(F0.5
F1.0471975803375244
tp2595
a(F0.5
F1.027886986732483
tp2596
a(F0.5
F1.0471950769424438
tp2597
a(F0.5
F0.7897630929946899
tp2598
a(F0.5
F-1.0471975803375244
tp2599
a(F0.5
F-1.0471975803375244
tp2600
a(F0.5
F-1.0471975803375244
tp2601
a(F0.5
F-1.0471956729888916
tp2602
a(F0.5
F1.0471975803375244
tp2603
a(F0.5
F1.0471975803375244
tp2604
a(F0.0
F0.0
tp2605
a(F0.5
F1.0471975803375244
tp2606
a(F0.0
F0.0
tp2607
a(F0.0
F0.0
tp2608
a(F0.0
F0.0
tp2609
a(F0.5
F-1.0471975803375244
tp2610
a(F0.5
F-1.0471975803375244
tp2611
a(F0.5
F-1.0471975803375244
tp2612
a(F0.5
F1.0471975803375244
tp2613
a(F0.5
F1.0471975803375244
tp2614
a(F0.5
F-1.0471975803375244
tp2615
a(F0.5
F-1.0471975803375244
tp2616
a(F0.5
F-1.0471975803375244
tp2617
a(F0.5
F-1.0471975803375244
tp2618
a(F0.5
F1.0471975803375244
tp2619
a(F0.0
F0.0
tp2620
a(F0.0
F0.0
tp2621
a(F0.0
F0.0
tp2622
a(F0.0
F0.0
tp2623
a(F0.0
F0.0
tp2624
a(F0.0
F0.0
tp2625
a(F0.5
F1.0471975803375244
tp2626
a(F0.5
F-1.0471975803375244
tp2627
a(F0.5
F-1.0471975803375244
tp2628
a(F0.5
F-1.0471975803375244
tp2629
a(F0.5
F-1.0471975803375244
tp2630
a(F0.5
F1.0471975803375244
tp2631
a(F0.5
F1.0471975803375244
tp2632
a(F0.5
F1.0471889972686768
tp2633
a(F0.5
F-1.0471975803375244
tp2634
a(F0.5
F-1.0471975803375244
tp2635
a(F0.5
F-1.0471975803375244
tp2636
a(F0.5
F-1.0471975803375244
tp2637
a(F0.5
F1.0471975803375244
tp2638
a(F0.5
F1.0471975803375244
tp2639
a(F0.5
F1.0471975803375244
tp2640
a(F0.5
F-1.008491039276123
tp2641
a(F0.5
F-1.0471975803375244
tp2642
a(F0.5
F-1.047182321548462
tp2643
a(F0.5
F1.0314778089523315
tp2644
a(F0.5
F1.0471975803375244
tp2645
a(F0.5
F1.0471975803375244
tp2646
a(F0.5
F1.0471975803375244
tp2647
a(F0.5
F-1.0471444129943848
tp2648
a(F0.5
F-1.0471975803375244
tp2649
a(F0.5
F-1.0471975803375244
tp2650
a(F0.5
F0.13716082274913788
tp2651
a(F0.0
F0.0
tp2652
a(F0.0
F0.0
tp2653
a(F0.0
F0.0
tp2654
a(F0.05000000074505806
F1.0471975803375244
tp2655
a(F0.05000000074505806
F1.0471975803375244
tp2656
a(F0.05000000074505806
F1.0471975803375244
tp2657
a(F0.05000000074505806
F1.0471975803375244
tp2658
a(F0.05000000074505806
F1.0471975803375244
tp2659
a(F0.05000000074505806
F1.0471975803375244
tp2660
a(F0.05000000074505806
F1.0471975803375244
tp2661
a(F0.05000000074505806
F1.0471975803375244
tp2662
a(F0.5
F1.0471975803375244
tp2663
a(F0.5
F1.0471975803375244
tp2664
a(F0.0
F0.0
tp2665
a(F0.0
F0.0
tp2666
a(F0.0
F0.0
tp2667
a(F0.0
F0.0
tp2668
a(F0.0
F0.0
tp2669
a(F0.5
F-1.0471975803375244
tp2670
a(F0.0
F0.0
tp2671
a(F0.5
F1.0471975803375244
tp2672
a(F0.5
F-1.0471709966659546
tp2673
a(F0.5
F-1.0471709966659546
tp2674
a(F0.5
F-1.0471975803375244
tp2675
a(F0.5
F-1.0471975803375244
tp2676
a(F0.5
F-1.0471975803375244
tp2677
a(F0.5
F1.0471975803375244
tp2678
a(F0.5
F1.0471975803375244
tp2679
a(F0.5
F1.0471975803375244
tp2680
a(F0.5
F1.0471975803375244
tp2681
a(F0.5
F1.0471975803375244
tp2682
a(F0.5
F1.0471975803375244
tp2683
a(F0.5
F-1.0471975803375244
tp2684
a(F0.5
F-1.0471975803375244
tp2685
a(F0.5
F-1.0471819639205933
tp2686
a(F0.5
F1.0471975803375244
tp2687
a(F0.5
F1.0471975803375244
tp2688
a(F0.5
F1.0471975803375244
tp2689
a(F0.5
F1.0471975803375244
tp2690
a(F0.5
F1.0471975803375244
tp2691
a(F0.5
F1.0471975803375244
tp2692
a(F0.5
F1.0471975803375244
tp2693
a(F0.5
F1.0471975803375244
tp2694
a(F0.5
F1.0471975803375244
tp2695
a(F0.5
F-1.0471975803375244
tp2696
a(F0.5
F1.0471975803375244
tp2697
a(F0.05000000074505806
F1.0471975803375244
tp2698
a(F0.05000000074505806
F1.0471975803375244
tp2699
a(F0.05000000074505806
F1.0471975803375244
tp2700
a(F0.499994695186615
F-1.0471975803375244
tp2701
a(F0.5
F-1.0471975803375244
tp2702
a(F0.5
F-1.047197699546814
tp2703
a(F0.5
F1.0471975803375244
tp2704
a(F0.05000000074505806
F1.0471975803375244
tp2705
a(F0.05000000074505806
F1.0471975803375244
tp2706
a(F0.05000000074505806
F1.0471975803375244
tp2707
a(F0.05000000074505806
F1.0471975803375244
tp2708
a(F0.05000000074505806
F1.0471975803375244
tp2709
a(F0.05000000074505806
F1.0471975803375244
tp2710
a(F0.0
F0.0
tp2711
a(F0.05000000074505806
F1.0471975803375244
tp2712
a(F0.05000000074505806
F1.0471975803375244
tp2713
a(F0.05000000074505806
F1.0471975803375244
tp2714
a(F0.05000000074505806
F1.0471975803375244
tp2715
a(F0.05000000074505806
F1.0471975803375244
tp2716
a(F0.05000000074505806
F1.0471975803375244
tp2717
a(F0.05000000074505806
F1.0471975803375244
tp2718
a(F0.05000000074505806
F1.0471975803375244
tp2719
a(F0.5
F1.0471975803375244
tp2720
a(F0.5
F1.0471975803375244
tp2721
a(F0.5
F1.0471975803375244
tp2722
a(F0.5
F1.0471975803375244
tp2723
a(F0.05000000074505806
F1.0471975803375244
tp2724
a(F0.05000000074505806
F-1.0471975803375244
tp2725
a(F0.5
F1.0471975803375244
tp2726
a(F0.5
F1.0471975803375244
tp2727
a(F0.5
F1.0471975803375244
tp2728
a(F0.5
F1.0471975803375244
tp2729
a(F0.05000000074505806
F1.0471975803375244
tp2730
a(F0.05000000074505806
F1.0471975803375244
tp2731
a(F0.05000000074505806
F1.0471975803375244
tp2732
a(F0.05000000074505806
F1.0471975803375244
tp2733
a(F0.05000000074505806
F1.0471975803375244
tp2734
a(F0.05000000074505806
F1.0471975803375244
tp2735
a(F0.5
F1.0471975803375244
tp2736
a(F0.5
F1.0471975803375244
tp2737
a(F0.0
F0.0
tp2738
a(F0.0
F0.0
tp2739
a(F0.5
F-1.0471975803375244
tp2740
a(F0.5
F-1.0471975803375244
tp2741
a(F0.5
F-1.0471975803375244
tp2742
a(F0.5
F-1.0471972227096558
tp2743
a(F0.5
F1.0471975803375244
tp2744
a(F0.5
F-1.0471975803375244
tp2745
a(F0.5
F1.0471975803375244
tp2746
a(F0.0
F0.0
tp2747
a(F0.0
F0.0
tp2748
a(F0.0
F0.0
tp2749
a(F0.0
F0.0
tp2750
a(F0.0
F0.0
tp2751
a(F0.0
F0.0
tp2752
a(F0.5
F-1.0471975803375244
tp2753
a(F0.5
F1.0471975803375244
tp2754
a(F0.5
F1.0471975803375244
tp2755
a(F0.5
F1.0471975803375244
tp2756
a(F0.5
F1.0471975803375244
tp2757
a(F0.5
F-1.0471975803375244
tp2758
a(F0.5
F-1.0471975803375244
tp2759
a(F0.5
F-1.0471975803375244
tp2760
a(F0.5
F-1.0471975803375244
tp2761
a(F0.5
F0.4573831260204315
tp2762
a(F0.5
F-1.0405019521713257
tp2763
a(F0.5
F1.0471975803375244
tp2764
a(F0.5
F1.0178331136703491
tp2765
a(F0.5
F-1.0471975803375244
tp2766
a(F0.5
F-0.9645329117774963
tp2767
a(F0.5
F1.0462346076965332
tp2768
a(F0.5
F1.0471975803375244
tp2769
a(F0.5
F1.0471975803375244
tp2770
a(F0.5
F1.0471975803375244
tp2771
a(F0.5
F1.0471975803375244
tp2772
a(F0.0
F0.0
tp2773
a(F0.0
F0.0
tp2774
a(F0.5
F-1.0471975803375244
tp2775
a(F0.5
F-1.0471975803375244
tp2776
a(F0.5
F-1.0471975803375244
tp2777
a(F0.5
F-1.0471975803375244
tp2778
a(F0.5
F1.0471975803375244
tp2779
a(F0.5
F1.0471975803375244
tp2780
a(F0.5
F1.0471975803375244
tp2781
a(F0.5
F-1.0471975803375244
tp2782
a(F0.5
F-1.0471975803375244
tp2783
a(F0.5
F-1.0471975803375244
tp2784
a(F0.5
F-1.0471975803375244
tp2785
a(F0.0
F0.0
tp2786
a(F0.0
F0.0
tp2787
a(F0.0
F0.0
tp2788
a(F0.0
F0.0
tp2789
a(F0.5
F1.0471975803375244
tp2790
a(F0.0
F0.0
tp2791
a(F0.5
F-1.0471975803375244
tp2792
a(F0.5
F-1.0471975803375244
tp2793
a(F0.5
F-1.0471975803375244
tp2794
a(F0.5
F-1.0471937656402588
tp2795
a(F0.5
F1.0471975803375244
tp2796
a(F0.5
F1.0471975803375244
tp2797
a(F0.5
F1.0471975803375244
tp2798
a(F0.5
F1.0471975803375244
tp2799
a(F0.5
F1.0471975803375244
tp2800
a(F0.5
F-1.0471975803375244
tp2801
a(F0.5
F-1.0471975803375244
tp2802
a(F0.5
F-0.8649694323539734
tp2803
a(F0.5
F1.0471975803375244
tp2804
a(F0.5
F1.0471975803375244
tp2805
a(F0.5
F1.0471975803375244
tp2806
a(F0.0
F0.0
tp2807
a(F0.5
F-1.0471975803375244
tp2808
a(F0.5
F-1.0471975803375244
tp2809
a(F0.5
F-1.0471882820129395
tp2810
a(F0.5
F1.0471975803375244
tp2811
a(F0.5
F1.0471975803375244
tp2812
a(F0.4436209499835968
F1.0471975803375244
tp2813
a(F0.4815792739391327
F1.0471975803375244
tp2814
a(F0.5
F1.0471975803375244
tp2815
a(F0.5
F-1.0430961847305298
tp2816
a(F0.0
F0.0
tp2817
a(F0.0
F0.0
tp2818
a(F0.5
F-1.0471975803375244
tp2819
a(F0.5
F-1.0471975803375244
tp2820
a(F0.5
F-1.0471975803375244
tp2821
a(F0.5
F1.0471975803375244
tp2822
a(F0.5
F1.0471975803375244
tp2823
a(F0.5
F-1.0471975803375244
tp2824
a(F0.5
F-1.0471975803375244
tp2825
a(F0.0
F0.0
tp2826
a(F0.0
F0.0
tp2827
a(F0.0
F0.0
tp2828
a(F0.0
F0.0
tp2829
a(F0.5
F-1.0471975803375244
tp2830
a(F0.0
F0.0
tp2831
a(F0.5
F-1.0471975803375244
tp2832
a(F0.5
F-1.0471975803375244
tp2833
a(F0.0
F0.0
tp2834
a(F0.5
F1.0471975803375244
tp2835
a(F0.5
F1.0471975803375244
tp2836
a(F0.5
F1.0471975803375244
tp2837
a(F0.5
F1.0471975803375244
tp2838
a(F0.5
F1.0471975803375244
tp2839
a(F0.5
F1.0471975803375244
tp2840
a(F0.5
F1.0471975803375244
tp2841
a(F0.5
F1.0471975803375244
tp2842
a(F0.5
F-1.0471975803375244
tp2843
a(F0.5
F-1.0471975803375244
tp2844
a(F0.5
F1.0471891164779663
tp2845
a(F0.5
F1.0471975803375244
tp2846
a(F0.5
F1.0452721118927002
tp2847
a(F0.5
F1.0471975803375244
tp2848
a(F0.5
F1.0471975803375244
tp2849
a(F0.5
F1.0471975803375244
tp2850
a(F0.0
F0.0
tp2851
a(F0.0
F0.0
tp2852
a(F0.0
F0.0
tp2853
a(F0.5
F-1.0471975803375244
tp2854
a(F0.5
F-1.0471975803375244
tp2855
a(F0.5
F1.0471975803375244
tp2856
a(F0.5
F-1.0471975803375244
tp2857
a(F0.5
F-1.0471975803375244
tp2858
a(F0.5
F-1.0471975803375244
tp2859
a(F0.5
F1.0471975803375244
tp2860
a(F0.5
F1.0471975803375244
tp2861
a(F0.5
F1.0471975803375244
tp2862
a(F0.5
F-1.0471975803375244
tp2863
a(F0.5
F-1.0471975803375244
tp2864
a(F0.0
F0.0
tp2865
a(F0.0
F0.0
tp2866
a(F0.0
F0.0
tp2867
a(F0.0
F0.0
tp2868
a(F0.0
F0.0
tp2869
a(F0.0
F0.0
tp2870
a(F0.05000000074505806
F1.0471975803375244
tp2871
a(F0.05000000074505806
F1.0471975803375244
tp2872
a(F0.05000000074505806
F1.0471975803375244
tp2873
a(F0.05000000074505806
F1.0471975803375244
tp2874
a(F0.05000000074505806
F1.0471975803375244
tp2875
a(F0.05000000074505806
F1.0471975803375244
tp2876
a(F0.05000000074505806
F1.0471975803375244
tp2877
a(F0.05000000074505806
F1.0471975803375244
tp2878
a(F0.0
F0.0
tp2879
a(F0.0
F0.0
tp2880
a(F0.0
F0.0
tp2881
a(F0.0
F0.0
tp2882
a(F0.0
F0.0
tp2883
a(F0.0
F0.0
tp2884
a(F0.05000000074505806
F1.0471975803375244
tp2885
a(F0.5
F1.0471975803375244
tp2886
a(F0.0
F0.0
tp2887
a(F0.5
F1.0471975803375244
tp2888
a(F0.5
F1.0471975803375244
tp2889
a(F0.5
F1.0471975803375244
tp2890
a(F0.5
F-1.0471975803375244
tp2891
a(F0.5
F-1.0471975803375244
tp2892
a(F0.5
F-1.0471975803375244
tp2893
a(F0.5
F-1.0471975803375244
tp2894
a(F0.5
F1.0471975803375244
tp2895
a(F0.5
F1.0471975803375244
tp2896
a(F0.5
F1.0471975803375244
tp2897
a(F0.5
F1.0471975803375244
tp2898
a(F0.5
F1.0471975803375244
tp2899
a(F0.5
F-1.0471975803375244
tp2900
a(F0.5
F-1.0471975803375244
tp2901
a(F0.5
F1.0471975803375244
tp2902
a(F0.5
F1.0471975803375244
tp2903
a(F0.5
F1.0471975803375244
tp2904
a(F0.5
F1.0471975803375244
tp2905
a(F0.0
F0.0
tp2906
a(F0.5
F-0.9731490015983582
tp2907
a(F0.5
F-1.0471975803375244
tp2908
a(F0.5
F-1.0471975803375244
tp2909
a(F0.5
F-1.0471975803375244
tp2910
a(F0.5
F-1.0471975803375244
tp2911
a(F0.5
F-1.0471975803375244
tp2912
a(F0.5
F-1.0471975803375244
tp2913
a(F0.5
F-1.0471975803375244
tp2914
a(F0.5
F-1.0471975803375244
tp2915
a(F0.5
F-1.0471975803375244
tp2916
a(F0.5
F0.46240174770355225
tp2917
a(F0.5
F-1.0471975803375244
tp2918
a(F0.5
F-1.040530800819397
tp2919
a(F0.5
F1.0471975803375244
tp2920
a(F0.5
F-1.0471956729888916
tp2921
a(F0.5
F1.0471975803375244
tp2922
a(F0.5
F1.0471975803375244
tp2923
a(F0.05000000074505806
F-1.0471975803375244
tp2924
a(F0.49921515583992004
F1.0471975803375244
tp2925
a(F0.49921515583992004
F1.0471975803375244
tp2926
a(F0.05000000074505806
F1.0471975803375244
tp2927
a(F0.05000000074505806
F1.0471975803375244
tp2928
a(F0.05000000074505806
F1.0471975803375244
tp2929
a(F0.49998974800109863
F1.0471975803375244
tp2930
a(F0.05000000074505806
F1.0471975803375244
tp2931
a(F0.49017471075057983
F1.0471975803375244
tp2932
a(F0.05000000074505806
F1.0471975803375244
tp2933
a(F0.2838188111782074
F1.0471975803375244
tp2934
a(F0.5
F-0.9988434314727783
tp2935
a(F0.5
F-1.0471975803375244
tp2936
a(F0.5
F-1.0471975803375244
tp2937
a(F0.5
F-1.0471975803375244
tp2938
a(F0.5
F-1.0471975803375244
tp2939
a(F0.05000000074505806
F1.0471975803375244
tp2940
a(F0.05000000074505806
F1.0471975803375244
tp2941
a(F0.05000000074505806
F1.0471975803375244
tp2942
a(F0.05000000074505806
F1.0471975803375244
tp2943
a(F0.05000000074505806
F1.0471975803375244
tp2944
a(F0.05000000074505806
F1.0471975803375244
tp2945
a(F0.05000000074505806
F1.0471975803375244
tp2946
a(F0.05000000074505806
F1.0471975803375244
tp2947
a(F0.5
F1.0471975803375244
tp2948
a(F0.0
F0.0
tp2949
a(F0.0
F0.0
tp2950
a(F0.5
F1.0471975803375244
tp2951
a(F0.5
F1.0471975803375244
tp2952
a(F0.5
F1.0471975803375244
tp2953
a(F0.5
F-1.0468859672546387
tp2954
a(F0.5
F-1.0468859672546387
tp2955
a(F0.5
F1.0471975803375244
tp2956
a(F0.5
F-1.0471975803375244
tp2957
a(F0.5
F-1.0471975803375244
tp2958
a(F0.0
F0.0
tp2959
a(F0.0
F0.0
tp2960
a(F0.0
F0.0
tp2961
a(F0.0
F0.0
tp2962
a(F0.0
F0.0
tp2963
a(F0.5
F1.0471975803375244
tp2964
a(F0.0
F0.0
tp2965
a(F0.0
F0.0
tp2966
a(F0.0
F0.0
tp2967
a(F0.5
F-1.0471975803375244
tp2968
a(F0.0
F0.0
tp2969
a(F0.5
F-1.0471975803375244
tp2970
a(F0.5
F-1.0471975803375244
tp2971
a(F0.5
F-1.0471975803375244
tp2972
a(F0.5
F-1.0471975803375244
tp2973
a(F0.5
F-1.0471975803375244
tp2974
a(F0.5
F-1.0471975803375244
tp2975
a(F0.5
F-1.0471975803375244
tp2976
a(F0.0
F0.0
tp2977
a(F0.5
F-1.0444567203521729
tp2978
a(F0.5
F-1.0471975803375244
tp2979
a(F0.5
F1.0471975803375244
tp2980
a(F0.5
F1.0471975803375244
tp2981
a(F0.5
F1.0471975803375244
tp2982
a(F0.5
F1.0471975803375244
tp2983
a(F0.5
F-1.0455864667892456
tp2984
a(F0.0
F0.0
tp2985
a(F0.0
F0.0
tp2986
a(F0.05000000074505806
F1.0471975803375244
tp2987
a(F0.05000000074505806
F1.0471975803375244
tp2988
a(F0.05000000074505806
F1.0471975803375244
tp2989
a(F0.05000000074505806
F1.0471975803375244
tp2990
a(F0.05000000074505806
F1.0471975803375244
tp2991
a(F0.05000000074505806
F1.0471975803375244
tp2992
a(F0.05000000074505806
F1.0471975803375244
tp2993
a(F0.05000000074505806
F1.0471975803375244
tp2994
a(F0.5
F1.0471975803375244
tp2995
a(F0.0
F0.0
tp2996
a(F0.0
F0.0
tp2997
a(F0.0
F0.0
tp2998
a(F0.0
F0.0
tp2999
a(F0.5
F-1.0471975803375244
tp3000
a(F0.5
F1.0471971035003662
tp3001
a(F0.5
F-1.0471975803375244
tp3002
a(F0.5
F1.0471975803375244
tp3003
a(F0.5
F-1.0471975803375244
tp3004
a(F0.5
F-1.0471975803375244
tp3005
a(F0.5
F1.0471975803375244
tp3006
a(F0.5
F1.0471975803375244
tp3007
a(F0.5
F-1.0471975803375244
tp3008
a(F0.5
F-1.0471975803375244
tp3009
a(F0.5
F-1.0471975803375244
tp3010
a(F0.0
F0.0
tp3011
a(F0.5
F1.0471975803375244
tp3012
a(F0.0
F0.0
tp3013
a(F0.5
F1.0471975803375244
tp3014
a(F0.5
F1.0471975803375244
tp3015
a(F0.5
F-1.0471975803375244
tp3016
a(F0.5
F-1.0471975803375244
tp3017
a(F0.5
F-1.0471975803375244
tp3018
a(F0.5
F-1.0471975803375244
tp3019
a(F0.5
F0.28343120217323303
tp3020
a(F0.5
F-1.0471975803375244
tp3021
a(F0.5
F-1.0471975803375244
tp3022
a(F0.5
F1.0465279817581177
tp3023
a(F0.5
F1.0471975803375244
tp3024
a(F0.5
F1.0471975803375244
tp3025
a(F0.5
F1.0471975803375244
tp3026
a(F0.5
F-1.0471975803375244
tp3027
a(F0.5
F-1.0471975803375244
tp3028
a(F0.5
F-1.0471975803375244
tp3029
a(F0.5
F-1.0467538833618164
tp3030
a(F0.5
F1.0471949577331543
tp3031
a(F0.0
F0.0
tp3032
a(F0.0
F0.0
tp3033
a(F0.5
F-1.0471975803375244
tp3034
a(F0.5
F-1.0471975803375244
tp3035
a(F0.5
F-1.0471975803375244
tp3036
a(F0.5
F-1.0471975803375244
tp3037
a(F0.5
F0.6183485388755798
tp3038
a(F0.5
F0.6183485388755798
tp3039
a(F0.0
F0.0
tp3040
a(F0.5
F-1.0471975803375244
tp3041
a(F0.5
F-1.0471975803375244
tp3042
a(F0.0
F0.0
tp3043
a(F0.0
F0.0
tp3044
a(F0.0
F0.0
tp3045
a(F0.0
F0.0
tp3046
a(F0.5
F1.0471974611282349
tp3047
a(F0.5
F-1.0471975803375244
tp3048
a(F0.5
F1.0471975803375244
tp3049
a(F0.5
F-1.0471975803375244
tp3050
a(F0.5
F-1.0471975803375244
tp3051
a(F0.5
F1.0183277130126953
tp3052
a(F0.5
F1.0471535921096802
tp3053
a(F0.5
F-1.0471975803375244
tp3054
a(F0.5
F-1.0471975803375244
tp3055
a(F0.5
F-1.0471975803375244
tp3056
a(F0.5
F-1.0471975803375244
tp3057
a(F0.5
F-0.796193540096283
tp3058
a(F0.5
F1.0471975803375244
tp3059
a(F0.0
F0.0
tp3060
a(F0.5
F-1.0471974611282349
tp3061
a(F0.5
F-1.0431073904037476
tp3062
a(F0.5
F-1.0431073904037476
tp3063
a(F0.5
F1.023149847984314
tp3064
a(F0.5
F1.0009955167770386
tp3065
a(F0.5
F-1.047196865081787
tp3066
a(F0.5
F0.14056296646595
tp3067
a(F0.5
F-0.9683196544647217
tp3068
a(F0.5
F1.0471969842910767
tp3069
a(F0.5
F1.0470433235168457
tp3070
a(F0.0
F0.0
tp3071
a(F0.0
F0.0
tp3072
a(F0.5
F-1.0471975803375244
tp3073
a(F0.5
F-1.0471975803375244
tp3074
a(F0.5
F-1.0471975803375244
tp3075
a(F0.5
F1.0471975803375244
tp3076
a(F0.5
F1.0458992719650269
tp3077
a(F0.5
F1.0458992719650269
tp3078
a(F0.5
F-1.0471975803375244
tp3079
a(F0.5
F-1.0471975803375244
tp3080
a(F0.0
F0.0
tp3081
a(F0.0
F0.0
tp3082
a(F0.0
F0.0
tp3083
a(F0.0
F0.0
tp3084
a(F0.5
F-1.0471975803375244
tp3085
a(F0.5
F-1.0471975803375244
tp3086
a(F0.5
F1.0471975803375244
tp3087
a(F0.5
F1.0471975803375244
tp3088
a(F0.5
F1.0471975803375244
tp3089
a(F0.5
F1.0471975803375244
tp3090
a(F0.5
F1.0471975803375244
tp3091
a(F0.5
F1.0471975803375244
tp3092
a(F0.5
F-1.0471975803375244
tp3093
a(F0.5
F-1.0471975803375244
tp3094
a(F0.5
F-1.0471975803375244
tp3095
a(F0.5
F-1.0471975803375244
tp3096
a(F0.5
F-1.0471493005752563
tp3097
a(F0.5
F-1.0461430549621582
tp3098
a(F0.5
F1.0471975803375244
tp3099
a(F0.5
F1.0471975803375244
tp3100
a(F0.5
F1.0471975803375244
tp3101
a(F0.5
F1.0471975803375244
tp3102
a(F0.5
F-1.0471975803375244
tp3103
a(F0.5
F-1.0471975803375244
tp3104
a(F0.5
F-1.0471974611282349
tp3105
a(F0.5
F1.0471974611282349
tp3106
a(F0.5
F1.0471975803375244
tp3107
a(F0.5
F1.0471975803375244
tp3108
a(F0.5
F0.4989936351776123
tp3109
a(F0.5
F-1.0471975803375244
tp3110
a(F0.5
F-1.0471975803375244
tp3111
a(F0.5
F-1.0471975803375244
tp3112
a(F0.5
F-1.0471686124801636
tp3113
a(F0.499978244304657
F1.0471975803375244
tp3114
a(F0.13762244582176208
F1.047188639640808
tp3115
a(F0.05000000074505806
F1.0460493564605713
tp3116
a(F0.2884993851184845
F1.0471975803375244
tp3117
a(F0.4998438358306885
F1.0471975803375244
tp3118
a(F0.5
F0.9308367967605591
tp3119
a(F0.0
F0.0
tp3120
a(F0.0
F0.0
tp3121
a(F0.5
F-1.0471975803375244
tp3122
a(F0.5
F-1.0471975803375244
tp3123
a(F0.5
F-1.0471975803375244
tp3124
a(F0.5
F-1.0471975803375244
tp3125
a(F0.5
F-1.0471975803375244
tp3126
a(F0.5
F1.0471975803375244
tp3127
a(F0.5
F1.0471975803375244
tp3128
a(F0.5
F1.0471975803375244
tp3129
a(F0.5
F-1.0471975803375244
tp3130
a(F0.5
F-1.0471975803375244
tp3131
a(F0.5
F-1.0471975803375244
tp3132
a(F0.0
F0.0
tp3133
a(F0.0
F0.0
tp3134
a(F0.0
F0.0
tp3135
a(F0.5
F1.0471975803375244
tp3136
a(F0.5
F-1.0471975803375244
tp3137
a(F0.5
F-1.0471975803375244
tp3138
a(F0.5
F-1.0471975803375244
tp3139
a(F0.5
F-1.0471975803375244
tp3140
a(F0.0
F0.0
tp3141
a(F0.5
F1.0471975803375244
tp3142
a(F0.5
F1.0471975803375244
tp3143
a(F0.5
F1.0471975803375244
tp3144
a(F0.5
F-1.0471975803375244
tp3145
a(F0.5
F-1.0471975803375244
tp3146
a(F0.5
F-1.0471975803375244
tp3147
a(F0.5
F-1.0471975803375244
tp3148
a(F0.5
F-1.0471975803375244
tp3149
a(F0.0
F0.0
tp3150
a(F0.0
F0.0
tp3151
a(F0.5
F1.0471975803375244
tp3152
a(F0.5
F1.0471975803375244
tp3153
a(F0.5
F1.0471975803375244
tp3154
a(F0.5
F-1.0471975803375244
tp3155
a(F0.0
F0.0
tp3156
a(F0.5
F-1.0471975803375244
tp3157
a(F0.5
F-1.0471975803375244
tp3158
a(F0.5
F-1.0471975803375244
tp3159
a(F0.5
F-1.0471975803375244
tp3160
a(F0.5
F-1.0471975803375244
tp3161
a(F0.5
F1.0471975803375244
tp3162
a(F0.0
F0.0
tp3163
a(F0.5
F-1.0471975803375244
tp3164
a(F0.0
F0.0
tp3165
a(F0.0
F0.0
tp3166
a(F0.5
F-1.0471975803375244
tp3167
a(F0.5
F-1.0471975803375244
tp3168
a(F0.5
F-1.0471975803375244
tp3169
a(F0.0
F0.0
tp3170
a(F0.0
F0.0
tp3171
a(F0.0
F0.0
tp3172
a(F0.0
F0.0
tp3173
a(F0.0
F0.0
tp3174
a(F0.0
F0.0
tp3175
a(F0.0
F0.0
tp3176
a(F0.0
F0.0
tp3177
a(F0.0
F0.0
tp3178
a(F0.0
F0.0
tp3179
a(F0.0
F0.0
tp3180
a(F0.0
F0.0
tp3181
a(F0.0
F0.0
tp3182
a(F0.0
F0.0
tp3183
a(F0.0
F0.0
tp3184
a(F0.0
F0.0
tp3185
a(F0.0
F0.0
tp3186
a(F0.5
F-1.0471975803375244
tp3187
a(F0.0
F0.0
tp3188
a(F0.0
F0.0
tp3189
a(F0.0
F0.0
tp3190
a(F0.5
F-1.0471975803375244
tp3191
a(F0.5
F-1.0471975803375244
tp3192
a(F0.5
F-1.0471975803375244
tp3193
a(F0.5
F1.0471928119659424
tp3194
a(F0.5
F1.0471975803375244
tp3195
a(F0.5
F1.0471975803375244
tp3196
a(F0.0
F0.0
tp3197
a(F0.0
F0.0
tp3198
a(F0.0
F0.0
tp3199
a(F0.5
F-1.0471975803375244
tp3200
a(F0.0
F0.0
tp3201
a(F0.5
F-1.0471975803375244
tp3202
a(F0.5
F1.0139942169189453
tp3203
a(F0.5
F-1.0471975803375244
tp3204
a(F0.5
F1.0471975803375244
tp3205
a(F0.5
F-1.0471975803375244
tp3206
a(F0.5
F1.0471975803375244
tp3207
a(F0.5
F-1.0413901805877686
tp3208
a(F0.5
F1.0471975803375244
tp3209
a(F0.0
F0.0
tp3210
a(F0.5
F-1.0471975803375244
tp3211
a(F0.0
F0.0
tp3212
a(F0.5
F-1.0471975803375244
tp3213
a(F0.0
F0.0
tp3214
a(F0.5
F-1.0471975803375244
tp3215
a(F0.5
F1.047196865081787
tp3216
a(F0.05000000074505806
F-1.0471975803375244
tp3217
a(F0.05000000074505806
F1.0471975803375244
tp3218
a(F0.05000000074505806
F1.0471975803375244
tp3219
a(F0.05000000074505806
F-1.0471975803375244
tp3220
a(F0.34195801615715027
F1.0471975803375244
tp3221
a(F0.499067485332489
F-1.0471975803375244
tp3222
a(F0.0
F0.0
tp3223
a(F0.05000000074505806
F-0.5830285549163818
tp3224
a(F0.05000000074505806
F-1.046847939491272
tp3225
a(F0.05000000074505806
F1.0471975803375244
tp3226
a(F0.05000000074505806
F1.0471975803375244
tp3227
a(F0.05000000074505806
F0.013188842684030533
tp3228
a(F0.05000000074505806
F-1.0471975803375244
tp3229
a(F0.05000000074505806
F1.0471975803375244
tp3230
a(F0.05000000074505806
F1.0471975803375244
tp3231
a(F0.05000000074505806
F-1.0471975803375244
tp3232
a(F0.05000000074505806
F-1.0471975803375244
tp3233
a(F0.05000000074505806
F1.0471925735473633
tp3234
a(F0.05000000074505806
F1.0471975803375244
tp3235
a(F0.05000000074505806
F-1.0471975803375244
tp3236
a(F0.05000000074505806
F-1.0471975803375244
tp3237
a(F0.05000000074505806
F1.0471975803375244
tp3238
a(F0.05000000074505806
F1.0471974611282349
tp3239
a(F0.05000000074505806
F-1.0471068620681763
tp3240
a(F0.05000000074505806
F1.0471975803375244
tp3241
a(F0.05000000074505806
F-1.0471975803375244
tp3242
a(F0.05000000074505806
F1.0471975803375244
tp3243
a(F0.05000000074505806
F1.0471975803375244
tp3244
a(F0.05000000074505806
F-1.0471975803375244
tp3245
a(F0.05000000074505806
F1.0471975803375244
tp3246
a(F0.05000000074505806
F1.0471975803375244
tp3247
a(F0.05000000074505806
F1.0471975803375244
tp3248
a(F0.05000000074505806
F1.0471975803375244
tp3249
a(F0.05000000074505806
F1.0471975803375244
tp3250
a(F0.05000000074505806
F1.0471975803375244
tp3251
a(F0.05000000074505806
F1.0471975803375244
tp3252
a(F0.05000000074505806
F1.0471975803375244
tp3253
a(F0.05000000074505806
F1.0471975803375244
tp3254
a(F0.05000000074505806
F1.0471975803375244
tp3255
a(F0.5
F1.0471975803375244
tp3256
a(F0.5
F1.0471975803375244
tp3257
a(F0.5
F1.0471975803375244
tp3258
a(F0.0
F0.0
tp3259
a(F0.0
F0.0
tp3260
a(F0.5
F1.0471975803375244
tp3261
a(F0.5
F1.0471975803375244
tp3262
a(F0.5
F-1.0471975803375244
tp3263
a(F0.5
F-1.0471975803375244
tp3264
a(F0.5
F-1.0471975803375244
tp3265
a(F0.5
F1.0471975803375244
tp3266
a(F0.5
F1.0471975803375244
tp3267
a(F0.0
F0.0
tp3268
a(F0.5
F1.0471975803375244
tp3269
a(F0.5
F-1.0471975803375244
tp3270
a(F0.0
F0.0
tp3271
a(F0.0
F0.0
tp3272
a(F0.0
F0.0
tp3273
a(F0.0
F0.0
tp3274
a(F0.5
F-1.0471975803375244
tp3275
a(F0.5
F-1.0471975803375244
tp3276
a(F0.5
F1.0471975803375244
tp3277
a(F0.5
F-1.0471975803375244
tp3278
a(F0.0
F0.0
tp3279
a(F0.5
F-1.0471975803375244
tp3280
a(F0.0
F0.0
tp3281
a(F0.0
F0.0
tp3282
a(F0.0
F0.0
tp3283
a(F0.5
F-1.0471975803375244
tp3284
a(F0.5
F-1.0471975803375244
tp3285
a(F0.5
F-1.0471975803375244
tp3286
a(F0.5
F-1.0471975803375244
tp3287
a(F0.5
F1.0471975803375244
tp3288
a(F0.5
F1.0471975803375244
tp3289
a(F0.5
F1.0274662971496582
tp3290
a(F0.5
F-1.0471975803375244
tp3291
a(F0.5
F-1.0471975803375244
tp3292
a(F0.5
F-1.0471975803375244
tp3293
a(F0.0
F0.0
tp3294
a(F0.0
F0.0
tp3295
a(F0.0
F0.0
tp3296
a(F0.0
F0.0
tp3297
a(F0.0
F0.0
tp3298
a(F0.5
F1.0471975803375244
tp3299
a(F0.0
F0.0
tp3300
a(F0.0
F0.0
tp3301
a(F0.5
F-1.0471975803375244
tp3302
a(F0.5
F-1.0471975803375244
tp3303
a(F0.5
F1.0471975803375244
tp3304
a(F0.0
F0.0
tp3305
a(F0.5
F1.0471975803375244
tp3306
a(F0.0
F0.0
tp3307
a(F0.5
F1.046730875968933
tp3308
a(F0.5
F-1.0471975803375244
tp3309
a(F0.5
F-1.0471975803375244
tp3310
a(F0.5
F-1.0471975803375244
tp3311
a(F0.5
F-1.0471975803375244
tp3312
a(F0.5
F1.0471975803375244
tp3313
a(F0.5
F1.0471975803375244
tp3314
a(F0.5
F1.0471975803375244
tp3315
a(F0.5
F1.0471975803375244
tp3316
a(F0.5
F-1.046756625175476
tp3317
a(F0.5
F-1.046756625175476
tp3318
a(F0.5
F-1.0471975803375244
tp3319
a(F0.5
F-1.0471975803375244
tp3320
a(F0.5
F-1.0471975803375244
tp3321
a(F0.5
F-1.0471917390823364
tp3322
a(F0.5
F-1.0471975803375244
tp3323
a(F0.5
F1.0471975803375244
tp3324
a(F0.0
F0.0
tp3325
a(F0.5
F-1.0471975803375244
tp3326
a(F0.0
F0.0
tp3327
a(F0.5
F-1.0471975803375244
tp3328
a(F0.5
F-1.047197699546814
tp3329
a(F0.5
F1.0471975803375244
tp3330
a(F0.5
F-1.0464811325073242
tp3331
a(F0.5
F1.0471975803375244
tp3332
a(F0.5
F1.0471975803375244
tp3333
a(F0.5
F1.0471975803375244
tp3334
a(F0.5
F-1.0471975803375244
tp3335
a(F0.5
F-0.7544851303100586
tp3336
a(F0.5
F1.0471965074539185
tp3337
a(F0.5
F-1.0471975803375244
tp3338
a(F0.05000000074505806
F1.0471975803375244
tp3339
a(F0.05000000074505806
F-0.19923549890518188
tp3340
a(F0.05000000074505806
F-1.0471975803375244
tp3341
a(F0.49976974725723267
F1.0471975803375244
tp3342
a(F0.05000000074505806
F-1.0471101999282837
tp3343
a(F0.05000000074505806
F1.0471975803375244
tp3344
a(F0.05000000074505806
F1.0471975803375244
tp3345
a(F0.0
F0.0
tp3346
a(F0.05000000074505806
F-1.0471975803375244
tp3347
a(F0.05000000074505806
F1.0471973419189453
tp3348
a(F0.05000000074505806
F1.0471973419189453
tp3349
a(F0.05000000074505806
F-1.0471975803375244
tp3350
a(F0.05000000074505806
F1.0471975803375244
tp3351
a(F0.05000000074505806
F1.0471975803375244
tp3352
a(F0.05000000074505806
F1.0471922159194946
tp3353
a(F0.05000000074505806
F1.0471922159194946
tp3354
a(F0.05000000074505806
F-1.0471975803375244
tp3355
a(F0.3102208077907562
F1.0471975803375244
tp3356
a(F0.05000000074505806
F1.0471351146697998
tp3357
a(F0.4844719171524048
F0.5369275212287903
tp3358
a(F0.4844719171524048
F0.5369275212287903
tp3359
a(F0.05000000074505806
F1.0471975803375244
tp3360
a(F0.05000000074505806
F1.0471975803375244
tp3361
a(F0.05000000074505806
F1.0471975803375244
tp3362
a(F0.05000000074505806
F1.0471975803375244
tp3363
a(F0.05000000074505806
F1.0471975803375244
tp3364
a(F0.05000000074505806
F1.0471975803375244
tp3365
a(F0.05000000074505806
F1.0471975803375244
tp3366
a(F0.49946069717407227
F1.0471975803375244
tp3367
a(F0.49946069717407227
F1.0471975803375244
tp3368
a(F0.0
F0.0
tp3369
a(F0.0
F0.0
tp3370
a(F0.05000000074505806
F1.0471975803375244
tp3371
a(F0.05000000074505806
F1.0471975803375244
tp3372
a(F0.05000000074505806
F1.0471975803375244
tp3373
a(F0.05000000074505806
F1.0471975803375244
tp3374
a(F0.05000000074505806
F1.0471975803375244
tp3375
a(F0.05000000074505806
F1.0471975803375244
tp3376
a(F0.05000000074505806
F1.0471975803375244
tp3377
a(F0.05000000074505806
F1.0471975803375244
tp3378
a(F0.5
F1.0471975803375244
tp3379
a(F0.5
F1.0471975803375244
tp3380
a(F0.5
F1.0471975803375244
tp3381
a(F0.0
F0.0
tp3382
a(F0.0
F0.0
tp3383
a(F0.0
F0.0
tp3384
a(F0.0
F0.0
tp3385
a(F0.5
F1.0471974611282349
tp3386
a(F0.5
F-1.0471975803375244
tp3387
a(F0.5
F-1.0471975803375244
tp3388
a(F0.5
F-1.0471975803375244
tp3389
a(F0.5
F-1.0471975803375244
tp3390
a(F0.5
F1.0466532707214355
tp3391
a(F0.5
F1.0471975803375244
tp3392
a(F0.5
F1.0471975803375244
tp3393
a(F0.5
F1.0471975803375244
tp3394
a(F0.5
F1.0471975803375244
tp3395
a(F0.5
F-1.0471975803375244
tp3396
a(F0.5
F-1.0471975803375244
tp3397
a(F0.5
F-1.0471959114074707
tp3398
a(F0.5
F1.0471975803375244
tp3399
a(F0.5
F1.0471975803375244
tp3400
a(F0.5
F1.0471975803375244
tp3401
a(F0.5
F1.0417231321334839
tp3402
a(F0.5
F-1.0471975803375244
tp3403
a(F0.5
F-0.9678148031234741
tp3404
a(F0.5
F-0.9678148031234741
tp3405
a(F0.5
F-1.0471975803375244
tp3406
a(F0.5
F1.0471975803375244
tp3407
a(F0.5
F1.0471975803375244
tp3408
a(F0.5
F1.0471975803375244
tp3409
a(F0.5
F1.0471975803375244
tp3410
a(F0.5
F-1.0471975803375244
tp3411
a(F0.5
F-1.0471975803375244
tp3412
a(F0.5
F-1.0471975803375244
tp3413
a(F0.5
F1.0471975803375244
tp3414
a(F0.5
F1.0471975803375244
tp3415
a(F0.5
F1.0471975803375244
tp3416
a(F0.5
F1.0471975803375244
tp3417
a(F0.4999999403953552
F1.0469638109207153
tp3418
a(F0.4999999403953552
F1.0469638109207153
tp3419
a(F0.4999999403953552
F1.0471975803375244
tp3420
a(F0.05000000074505806
F1.0471975803375244
tp3421
a(F0.4999998211860657
F1.0471975803375244
tp3422
a(F0.5
F1.0471975803375244
tp3423
a(F0.5
F1.0471975803375244
tp3424
a(F0.05000000074505806
F1.0471975803375244
tp3425
a(F0.05000000074505806
F1.0471975803375244
tp3426
a(F0.5
F1.0471975803375244
tp3427
a(F0.5
F1.0471975803375244
tp3428
a(F0.5
F1.0471975803375244
tp3429
a(F0.05000000074505806
F1.0471975803375244
tp3430
a(F0.05000000074505806
F1.0471975803375244
tp3431
a(F0.05000000074505806
F1.0471975803375244
tp3432
a(F0.05000000074505806
F1.0471975803375244
tp3433
a(F0.05000000074505806
F1.0471975803375244
tp3434
a(F0.05000000074505806
F1.0471975803375244
tp3435
a(F0.05000000074505806
F1.0471975803375244
tp3436
a(F0.05000000074505806
F1.0471975803375244
tp3437
a(F0.05000000074505806
F1.0471975803375244
tp3438
a(F0.05000000074505806
F1.0471975803375244
tp3439
a(F0.05000000074505806
F1.0471975803375244
tp3440
a(F0.05000000074505806
F-1.0471975803375244
tp3441
a(F0.5
F1.0471975803375244
tp3442
a(F0.5
F-1.0471975803375244
tp3443
a(F0.5
F1.0471971035003662
tp3444
a(F0.5
F-1.0471974611282349
tp3445
a(F0.16827337443828583
F1.0471975803375244
tp3446
a(F0.05000000074505806
F1.0471975803375244
tp3447
a(F0.49999964237213135
F-1.0471974611282349
tp3448
a(F0.05000000074505806
F1.0471975803375244
tp3449
a(F0.05000000074505806
F1.0471975803375244
tp3450
a(F0.4999999403953552
F1.0471975803375244
tp3451
a(F0.05000000074505806
F1.0471975803375244
tp3452
a(F0.05000000074505806
F1.0471975803375244
tp3453
a(F0.05000000074505806
F1.0471975803375244
tp3454
a(F0.05000000074505806
F1.0471975803375244
tp3455
a(F0.05000000074505806
F1.0471975803375244
tp3456
a(F0.05000000074505806
F1.0471975803375244
tp3457
a(F0.05000000074505806
F1.0471975803375244
tp3458
a(F0.05000000074505806
F1.0471975803375244
tp3459
a(F0.05000000074505806
F1.0471975803375244
tp3460
a(F0.05000000074505806
F1.0471975803375244
tp3461
a(F0.0
F0.0
tp3462
a(F0.5
F1.0471975803375244
tp3463
a(F0.5
F1.0471975803375244
tp3464
a(F0.5
F1.0471975803375244
tp3465
a(F0.5
F1.0471975803375244
tp3466
a(F0.5
F1.0471975803375244
tp3467
a(F0.0
F0.0
tp3468
a(F0.5
F1.0471975803375244
tp3469
a(F0.5
F1.0471975803375244
tp3470
a(F0.0
F0.0
tp3471
a(F0.0
F0.0
tp3472
a(F0.0
F0.0
tp3473
a(F0.0
F0.0
tp3474
a(F0.05000000074505806
F1.0471975803375244
tp3475
a(F0.05000000074505806
F1.0471975803375244
tp3476
a(F0.05000000074505806
F1.0471975803375244
tp3477
a(F0.05000000074505806
F1.0471975803375244
tp3478
a(F0.05000000074505806
F1.0471975803375244
tp3479
a(F0.05000000074505806
F1.0471975803375244
tp3480
a(F0.5
F1.0471975803375244
tp3481
a(F0.5
F1.0471975803375244
tp3482
a(F0.4917382001876831
F-1.0471973419189453
tp3483
a(F0.5
F1.0471975803375244
tp3484
a(F0.05000000074505806
F1.0204296112060547
tp3485
a(F0.5
F-1.0471975803375244
tp3486
a(F0.5
F1.0471975803375244
tp3487
a(F0.49999988079071045
F1.0471975803375244
tp3488
a(F0.0
F0.0
tp3489
a(F0.25096023082733154
F1.0471975803375244
tp3490
a(F0.05000000074505806
F1.0471975803375244
tp3491
a(F0.05000000074505806
F1.0471975803375244
tp3492
a(F0.05000000074505806
F1.0471975803375244
tp3493
a(F0.05000000074505806
F1.0471975803375244
tp3494
a(F0.05000000074505806
F1.0471975803375244
tp3495
a(F0.05000000074505806
F1.0471975803375244
tp3496
a(F0.05000000074505806
F1.0471975803375244
tp3497
a(F0.05000000074505806
F1.0471975803375244
tp3498
a(F0.05000000074505806
F1.0471975803375244
tp3499
a(F0.5
F1.0471975803375244
tp3500
a(F0.0
F0.0
tp3501
a(F0.0
F0.0
tp3502
a(F0.0
F0.0
tp3503
a(F0.0
F0.0
tp3504
a(F0.0
F0.0
tp3505
a(F0.5
F1.0471975803375244
tp3506
a(F0.05000000074505806
F1.0471975803375244
tp3507
a(F0.05000000074505806
F1.0471975803375244
tp3508
a(F0.05000000074505806
F1.0471975803375244
tp3509
a(F0.05000000074505806
F1.0471975803375244
tp3510
a(F0.05000000074505806
F1.0471975803375244
tp3511
a(F0.05000000074505806
F1.0471975803375244
tp3512
a(F0.05000000074505806
F1.0471975803375244
tp3513
a(F0.05000000074505806
F1.0471975803375244
tp3514
a(F0.05000000074505806
F1.0471975803375244
tp3515
a(F0.05000000074505806
F1.0471975803375244
tp3516
a(F0.05000000074505806
F1.0471975803375244
tp3517
a(F0.05000000074505806
F1.0471975803375244
tp3518
a(F0.499997615814209
F1.0471975803375244
tp3519
a(F0.499997615814209
F1.0471975803375244
tp3520
a(F0.05000000074505806
F-1.0471975803375244
tp3521
a(F0.0
F0.0
tp3522
a(F0.0
F0.0
tp3523
a(F0.49999988079071045
F1.0471975803375244
tp3524
a(F0.5
F1.0471795797348022
tp3525
a(F0.49738094210624695
F1.0471975803375244
tp3526
a(F0.05000000074505806
F1.0471975803375244
tp3527
a(F0.05000000074505806
F1.0471975803375244
tp3528
a(F0.0
F0.0
tp3529
a(F0.0
F0.0
tp3530
a(F0.0
F0.0
tp3531
a(F0.05000000074505806
F1.0471975803375244
tp3532
a(F0.0
F0.0
tp3533
a(F0.05000000074505806
F1.0471975803375244
tp3534
a(F0.06764660030603409
F1.0471975803375244
tp3535
a(F0.0
F0.0
tp3536
a(F0.0
F0.0
tp3537
a(F0.5
F1.0471975803375244
tp3538
a(F0.5
F1.0471975803375244
tp3539
a(F0.5
F1.0471975803375244
tp3540
a(F0.5
F1.0471975803375244
tp3541
a(F0.5
F1.0471975803375244
tp3542
a(F0.5
F1.0471975803375244
tp3543
a(F0.05000000074505806
F1.0471975803375244
tp3544
a(F0.05000000074505806
F1.0471975803375244
tp3545
a(F0.05000000074505806
F1.0471975803375244
tp3546
a(F0.0
F0.0
tp3547
a(F0.0
F0.0
tp3548
a(F0.0
F0.0
tp3549
a(F0.0
F0.0
tp3550
a(F0.0
F0.0
tp3551
a(F0.0
F0.0
tp3552
a(F0.5
F1.0471975803375244
tp3553
a(F0.05000000074505806
F1.0471975803375244
tp3554
a(F0.0
F0.0
tp3555
a(F0.0
F0.0
tp3556
a(F0.05000000074505806
F1.0471975803375244
tp3557
a(F0.0
F0.0
tp3558
a(F0.0
F0.0
tp3559
a(F0.0
F0.0
tp3560
a(F0.5
F0.211753249168396
tp3561
a(F0.5
F1.0471975803375244
tp3562
a(F0.5
F1.0471975803375244
tp3563
a(F0.5
F1.0471975803375244
tp3564
a(F0.05000000074505806
F1.0471975803375244
tp3565
a(F0.05000000074505806
F1.0471975803375244
tp3566
a(F0.05000000074505806
F1.0471975803375244
tp3567
a(F0.05000000074505806
F1.0471975803375244
tp3568
a(F0.4997950494289398
F1.0471975803375244
tp3569
a(F0.05000000074505806
F1.0471975803375244
tp3570
a(F0.0
F0.0
tp3571
a(F0.0
F0.0
tp3572
a(F0.0
F0.0
tp3573
a(F0.5
F1.0471975803375244
tp3574
a(F0.5
F-1.0471975803375244
tp3575
a(F0.5
F-1.0471935272216797
tp3576
a(F0.5
F1.0471975803375244
tp3577
a(F0.5
F1.0471975803375244
tp3578
a(F0.5
F1.0471975803375244
tp3579
a(F0.5
F1.0466687679290771
tp3580
a(F0.5
F-1.0471975803375244
tp3581
a(F0.5
F-1.0471975803375244
tp3582
a(F0.5
F1.0471975803375244
tp3583
a(F0.0
F0.0
tp3584
a(F0.0
F0.0
tp3585
a(F0.0
F0.0
tp3586
a(F0.0
F0.0
tp3587
a(F0.0
F0.0
tp3588
a(F0.0
F0.0
tp3589
a(F0.0
F0.0
tp3590
a(F0.5
F1.0471975803375244
tp3591
a(F0.5
F1.0471975803375244
tp3592
a(F0.5
F-1.0471975803375244
tp3593
a(F0.0
F0.0
tp3594
a(F0.5
F1.0471975803375244
tp3595
a(F0.5
F1.0471975803375244
tp3596
a(F0.0
F0.0
tp3597
a(F0.0
F0.0
tp3598
a(F0.0
F0.0
tp3599
a(F0.0
F0.0
tp3600
a(F0.0
F0.0
tp3601
a(F0.0
F0.0
tp3602
a(F0.0
F0.0
tp3603
a(F0.0
F0.0
tp3604
a(F0.0
F0.0
tp3605
a(F0.5
F-1.0471975803375244
tp3606
a(F0.0
F0.0
tp3607
a(F0.0
F0.0
tp3608
a(F0.5
F-1.0471975803375244
tp3609
a(F0.5
F-1.0471975803375244
tp3610
a(F0.5
F-1.0471975803375244
tp3611
a(F0.5
F0.8163944482803345
tp3612
a(F0.5
F-1.0471975803375244
tp3613
a(F0.5
F1.0471975803375244
tp3614
a(F0.5
F-1.0471975803375244
tp3615
a(F0.5
F-1.0471975803375244
tp3616
a(F0.5
F-1.0471975803375244
tp3617
a(F0.5
F-1.0471975803375244
tp3618
a(F0.5
F-1.0471975803375244
tp3619
a(F0.5
F-1.0471975803375244
tp3620
a(F0.5
F1.0471975803375244
tp3621
a(F0.5
F1.0471975803375244
tp3622
a(F0.0
F0.0
tp3623
a(F0.5
F-1.0470386743545532
tp3624
a(F0.5
F-1.0471972227096558
tp3625
a(F0.5
F-1.0471972227096558
tp3626
a(F0.5
F-1.0471975803375244
tp3627
a(F0.5
F-1.0471975803375244
tp3628
a(F0.5
F-1.0471975803375244
tp3629
a(F0.5
F-1.0471975803375244
tp3630
a(F0.5
F-1.0471975803375244
tp3631
a(F0.5
F1.0471975803375244
tp3632
a(F0.5
F1.0471975803375244
tp3633
a(F0.5
F-1.0471975803375244
tp3634
a(F0.5
F-1.0471975803375244
tp3635
a(F0.5
F1.0471975803375244
tp3636
a(F0.0
F0.0
tp3637
a(F0.0
F0.0
tp3638
a(F0.5
F-1.0471975803375244
tp3639
a(F0.0
F0.0
tp3640
a(F0.5
F1.0471975803375244
tp3641
a(F0.5
F-1.0471975803375244
tp3642
a(F0.5
F-1.0471975803375244
tp3643
a(F0.0
F0.0
tp3644
a(F0.0
F0.0
tp3645
a(F0.0
F0.0
tp3646
a(F0.0
F0.0
tp3647
a(F0.0
F0.0
tp3648
a(F0.5
F-1.0471975803375244
tp3649
a(F0.0
F0.0
tp3650
a(F0.5
F-1.0471975803375244
tp3651
a(F0.0
F0.0
tp3652
a(F0.5
F1.0471975803375244
tp3653
a(F0.5
F1.0471975803375244
tp3654
a(F0.0
F0.0
tp3655
a(F0.5
F-1.0471975803375244
tp3656
a(F0.5
F1.0471975803375244
tp3657
a(F0.5
F-1.0471889972686768
tp3658
a(F0.5
F1.0471975803375244
tp3659
a(F0.5
F1.0471975803375244
tp3660
a(F0.5
F-1.0471973419189453
tp3661
a(F0.5
F0.2664572596549988
tp3662
a(F0.5
F1.027964472770691
tp3663
a(F0.0
F0.0
tp3664
a(F0.5
F-0.9714721441268921
tp3665
a(F0.5
F0.3126346170902252
tp3666
a(F0.0
F0.0
tp3667
a(F0.0
F0.0
tp3668
a(F0.05000000074505806
F1.0471975803375244
tp3669
a(F0.05000000074505806
F1.0471975803375244
tp3670
a(F0.05000000074505806
F1.0471975803375244
tp3671
a(F0.05000000074505806
F1.0471975803375244
tp3672
a(F0.0
F0.0
tp3673
a(F0.05000000074505806
F1.0471975803375244
tp3674
a(F0.05000000074505806
F1.0471975803375244
tp3675
a(F0.5
F1.0471975803375244
tp3676
a(F0.5
F1.0471975803375244
tp3677
a(F0.5
F1.0471975803375244
tp3678
a(F0.0
F0.0
tp3679
a(F0.0
F0.0
tp3680
a(F0.0
F0.0
tp3681
a(F0.0
F0.0
tp3682
a(F0.0
F0.0
tp3683
a(F0.0
F0.0
tp3684
a(F0.0
F0.0
tp3685
a(F0.05000000074505806
F1.0471975803375244
tp3686
a(F0.05000000074505806
F1.0471975803375244
tp3687
a(F0.05000000074505806
F1.0471975803375244
tp3688
a(F0.0
F0.0
tp3689
a(F0.0
F0.0
tp3690
a(F0.0
F0.0
tp3691
a(F0.0
F0.0
tp3692
a(F0.0
F0.0
tp3693
a(F0.5
F1.0471975803375244
tp3694
a(F0.0
F0.0
tp3695
a(F0.5
F1.0471975803375244
tp3696
a(F0.5
F1.0471975803375244
tp3697
a(F0.5
F-1.0471975803375244
tp3698
a(F0.5
F-1.0471975803375244
tp3699
a(F0.5
F1.0471975803375244
tp3700
a(F0.5
F1.0471975803375244
tp3701
a(F0.5
F-1.0471975803375244
tp3702
a(F0.0
F0.0
tp3703
a(F0.5
F1.0471975803375244
tp3704
a(F0.5
F-1.0471975803375244
tp3705
a(F0.5
F-1.0471975803375244
tp3706
a(F0.5
F-1.0471975803375244
tp3707
a(F0.5
F-1.0471975803375244
tp3708
a(F0.5
F1.0471975803375244
tp3709
a(F0.5
F1.0471975803375244
tp3710
a(F0.5
F1.0471975803375244
tp3711
a(F0.5
F1.0471975803375244
tp3712
a(F0.5
F-1.0471975803375244
tp3713
a(F0.5
F-1.0471975803375244
tp3714
a(F0.0
F0.0
tp3715
a(F0.5
F1.0471975803375244
tp3716
a(F0.5
F1.0471975803375244
tp3717
a(F0.5
F1.0471975803375244
tp3718
a(F0.5
F1.0471975803375244
tp3719
a(F0.5
F1.0471975803375244
tp3720
a(F0.5
F1.0471975803375244
tp3721
a(F0.5
F1.0471975803375244
tp3722
a(F0.5
F1.0471975803375244
tp3723
a(F0.0
F0.0
tp3724
a(F0.5
F1.0471975803375244
tp3725
a(F0.0
F0.0
tp3726
a(F0.0
F0.0
tp3727
a(F0.0
F0.0
tp3728
a(F0.0
F0.0
tp3729
a(F0.05000000074505806
F1.0471975803375244
tp3730
a(F0.05000000074505806
F1.0471975803375244
tp3731
a(F0.05000000074505806
F1.0471975803375244
tp3732
a(F0.05000000074505806
F1.0471975803375244
tp3733
a(F0.05000000074505806
F1.0471975803375244
tp3734
a(F0.05000000074505806
F1.0471975803375244
tp3735
a(F0.05000000074505806
F1.0471975803375244
tp3736
a(F0.0
F0.0
tp3737
a(F0.0
F0.0
tp3738
a(F0.0
F0.0
tp3739
a(F0.0
F0.0
tp3740
a(F0.0
F0.0
tp3741
a(F0.5
F1.0471975803375244
tp3742
a(F0.5
F-1.0471975803375244
tp3743
a(F0.0
F0.0
tp3744
a(F0.5
F-1.0471975803375244
tp3745
a(F0.0
F0.0
tp3746
a(F0.0
F0.0
tp3747
a(F0.0
F0.0
tp3748
a(F0.05000000074505806
F1.0471975803375244
tp3749
a(F0.05000000074505806
F1.0471975803375244
tp3750
a(F0.0
F0.0
tp3751
a(F0.05000000074505806
F1.0471975803375244
tp3752
a(F0.05000000074505806
F1.0471975803375244
tp3753
a(F0.05000000074505806
F1.0471975803375244
tp3754
a(F0.05000000074505806
F1.0471975803375244
tp3755
a(F0.05000000074505806
F1.0471975803375244
tp3756
a(F0.5
F1.0471975803375244
tp3757
a(F0.5
F1.0471975803375244
tp3758
a(F0.5
F1.0471975803375244
tp3759
a(F0.0
F0.0
tp3760
a(F0.0
F0.0
tp3761
a(F0.0
F0.0
tp3762
a(F0.0
F0.0
tp3763
a(F0.0
F0.0
tp3764
a(F0.0
F0.0
tp3765
a(F0.0
F0.0
tp3766
a(F0.0
F0.0
tp3767
a(F0.05000000074505806
F1.0471975803375244
tp3768
a(F0.05000000074505806
F1.0471975803375244
tp3769
a(F0.0
F0.0
tp3770
a(F0.0
F0.0
tp3771
a(F0.0
F0.0
tp3772
a(F0.0
F0.0
tp3773
a(F0.0
F0.0
tp3774
a(F0.0
F0.0
tp3775
a(F0.5
F1.0471975803375244
tp3776
a(F0.0
F0.0
tp3777
a(F0.5
F1.0471975803375244
tp3778
a(F0.5
F1.0471975803375244
tp3779
a(F0.0
F0.0
tp3780
a(F0.5
F1.0471975803375244
tp3781
a(F0.5
F-1.0471975803375244
tp3782
a(F0.5
F1.0471975803375244
tp3783
a(F0.5
F1.0471975803375244
tp3784
a(F0.5
F1.0471975803375244
tp3785
a(F0.0
F0.0
tp3786
a(F0.0
F0.0
tp3787
a(F0.05000000074505806
F1.0471975803375244
tp3788
a(F0.05000000074505806
F1.0471975803375244
tp3789
a(F0.05000000074505806
F1.0471975803375244
tp3790
a(F0.05000000074505806
F1.0471975803375244
tp3791
a(F0.05000000074505806
F1.0471975803375244
tp3792
a(F0.05000000074505806
F1.0471975803375244
tp3793
a(F0.05000000074505806
F1.0471975803375244
tp3794
a(F0.5
F1.0471975803375244
tp3795
a(F0.5
F1.0471975803375244
tp3796
a(F0.5
F1.0471975803375244
tp3797
a(F0.5
F1.0471975803375244
tp3798
a(F0.0
F0.0
tp3799
a(F0.0
F0.0
tp3800
a(F0.0
F0.0
tp3801
a(F0.0
F0.0
tp3802
a(F0.0
F0.0
tp3803
a(F0.0
F0.0
tp3804
a(F0.0
F0.0
tp3805
a(F0.5
F-1.0471975803375244
tp3806
a(F0.5
F-1.0471975803375244
tp3807
a(F0.5
F-1.0471975803375244
tp3808
a(F0.5
F-1.0471975803375244
tp3809
a(F0.5
F1.0471975803375244
tp3810
a(F0.5
F1.0471975803375244
tp3811
a(F0.5
F-1.0471975803375244
tp3812
a(F0.5
F-1.0471975803375244
tp3813
a(F0.5
F-1.0471975803375244
tp3814
a(F0.5
F1.0471975803375244
tp3815
a(F0.0
F0.0
tp3816
a(F0.0
F0.0
tp3817
a(F0.0
F0.0
tp3818
a(F0.0
F0.0
tp3819
a(F0.0
F0.0
tp3820
a(F0.5
F1.0471975803375244
tp3821
a(F0.5
F-1.038086175918579
tp3822
a(F0.0
F0.0
tp3823
a(F0.5
F1.0177702903747559
tp3824
a(F0.5
F-1.0471975803375244
tp3825
a(F0.5
F-1.0471975803375244
tp3826
a(F0.5
F-1.0471975803375244
tp3827
a(F0.5
F-1.0471975803375244
tp3828
a(F0.5
F-1.0471975803375244
tp3829
a(F0.5
F1.047192931175232
tp3830
a(F0.5
F1.0471948385238647
tp3831
a(F0.0
F0.0
tp3832
a(F0.0
F0.0
tp3833
a(F0.0
F0.0
tp3834
a(F0.5
F1.046918272972107
tp3835
a(F0.5
F1.0471975803375244
tp3836
a(F0.5
F1.0471975803375244
tp3837
a(F0.0
F0.0
tp3838
a(F0.0
F0.0
tp3839
a(F0.0
F0.0
tp3840
a(F0.5
F-1.0471972227096558
tp3841
a(F0.0
F0.0
tp3842
a(F0.07209058851003647
F1.0471975803375244
tp3843
a(F0.05000000074505806
F1.0471975803375244
tp3844
a(F0.0
F0.0
tp3845
a(F0.4955552816390991
F1.0471975803375244
tp3846
a(F0.0
F0.0
tp3847
a(F0.05000000074505806
F1.0471975803375244
tp3848
a(F0.05000000074505806
F1.0471975803375244
tp3849
a(F0.0
F0.0
tp3850
a(F0.0
F0.0
tp3851
a(F0.05000000074505806
F1.0471975803375244
tp3852
a(F0.0
F0.0
tp3853
a(F0.05000000074505806
F1.0471975803375244
tp3854
a(F0.5
F1.0471975803375244
tp3855
a(F0.5
F1.0471975803375244
tp3856
a(F0.5
F1.0471975803375244
tp3857
a(F0.5
F1.0471975803375244
tp3858
a(F0.5
F1.0471975803375244
tp3859
a(F0.5
F1.0471975803375244
tp3860
a(F0.5
F1.0471975803375244
tp3861
a(F0.05000000074505806
F1.0471975803375244
tp3862
a(F0.0
F0.0
tp3863
a(F0.5
F1.0471975803375244
tp3864
a(F0.5
F1.0471975803375244
tp3865
a(F0.0
F0.0
tp3866
a(F0.5
F1.0471975803375244
tp3867
a(F0.05000000074505806
F1.0471975803375244
tp3868
a(F0.05000000074505806
F1.0471975803375244
tp3869
a(F0.05000000074505806
F1.0471975803375244
tp3870
a(F0.5
F1.0471975803375244
tp3871
a(F0.5
F1.0471975803375244
tp3872
a(F0.0
F0.0
tp3873
a(F0.0
F0.0
tp3874
a(F0.5
F1.0471975803375244
tp3875
a(F0.5
F1.0471975803375244
tp3876
a(F0.5
F1.0471975803375244
tp3877
a(F0.5
F1.0471948385238647
tp3878
a(F0.5
F-1.038521409034729
tp3879
a(F0.5
F-1.0471975803375244
tp3880
a(F0.5
F-1.0471975803375244
tp3881
a(F0.5
F1.0471975803375244
tp3882
a(F0.5
F1.0471975803375244
tp3883
a(F0.5
F1.0471975803375244
tp3884
a(F0.5
F1.0471975803375244
tp3885
a(F0.5
F1.0471975803375244
tp3886
a(F0.0
F0.0
tp3887
a(F0.0
F0.0
tp3888
a(F0.0
F0.0
tp3889
a(F0.0
F0.0
tp3890
a(F0.0
F0.0
tp3891
a(F0.0
F0.0
tp3892
a(F0.0
F0.0
tp3893
a(F0.0
F0.0
tp3894
a(F0.05000000074505806
F1.0471975803375244
tp3895
a(F0.05000000074505806
F1.0471975803375244
tp3896
a(F0.05000000074505806
F1.0471975803375244
tp3897
a(F0.05000000074505806
F1.0471975803375244
tp3898
a(F0.05000000074505806
F1.0471975803375244
tp3899
a(F0.05000000074505806
F1.0471975803375244
tp3900
a(F0.3581353724002838
F1.0471975803375244
tp3901
a(F0.5
F1.0471975803375244
tp3902
a(F0.5
F1.0471975803375244
tp3903
a(F0.5
F1.0471975803375244
tp3904
a(F0.0
F0.0
tp3905
a(F0.0
F0.0
tp3906
a(F0.0
F0.0
tp3907
a(F0.0
F0.0
tp3908
a(F0.0
F0.0
tp3909
a(F0.0
F0.0
tp3910
a(F0.0
F0.0
tp3911
a(F0.5
F-1.0471975803375244
tp3912
a(F0.5
F-1.0471975803375244
tp3913
a(F0.5
F-1.0471975803375244
tp3914
a(F0.5
F1.0471975803375244
tp3915
a(F0.5
F-1.0471975803375244
tp3916
a(F0.5
F-1.0471975803375244
tp3917
a(F0.5
F-1.0471975803375244
tp3918
a(F0.5
F1.0471975803375244
tp3919
a(F0.5
F-1.0471975803375244
tp3920
a(F0.0
F0.0
tp3921
a(F0.0
F0.0
tp3922
a(F0.0
F0.0
tp3923
a(F0.0
F0.0
tp3924
a(F0.5
F1.0471975803375244
tp3925
a(F0.5
F1.0471975803375244
tp3926
a(F0.5
F1.0471975803375244
tp3927
a(F0.5
F1.0471975803375244
tp3928
a(F0.5
F1.0471975803375244
tp3929
a(F0.5
F1.0471975803375244
tp3930
a(F0.5
F-1.0471975803375244
tp3931
a(F0.5
F-1.047119379043579
tp3932
a(F0.5
F-1.047119379043579
tp3933
a(F0.5
F-1.0471975803375244
tp3934
a(F0.5
F-0.13817110657691956
tp3935
a(F0.5
F1.0462946891784668
tp3936
a(F0.5
F1.0471975803375244
tp3937
a(F0.5
F1.0471975803375244
tp3938
a(F0.4999627470970154
F1.0471975803375244
tp3939
a(F0.05000000074505806
F1.0471975803375244
tp3940
a(F0.05000000074505806
F1.0471975803375244
tp3941
a(F0.05000000074505806
F1.0471975803375244
tp3942
a(F0.0
F0.0
tp3943
a(F0.05000000074505806
F1.0471975803375244
tp3944
a(F0.05000000074505806
F1.0471975803375244
tp3945
a(F0.05000000074505806
F1.0471975803375244
tp3946
a(F0.05000000074505806
F1.0471975803375244
tp3947
a(F0.05000000074505806
F1.0471975803375244
tp3948
a(F0.0
F0.0
tp3949
a(F0.0
F0.0
tp3950
a(F0.05000000074505806
F1.0471975803375244
tp3951
a(F0.05000000074505806
F1.0471975803375244
tp3952
a(F0.49999773502349854
F1.0471975803375244
tp3953
a(F0.5
F1.0471975803375244
tp3954
a(F0.5
F1.0471975803375244
tp3955
a(F0.5
F1.0471975803375244
tp3956
a(F0.0
F0.0
tp3957
a(F0.05000000074505806
F1.0471975803375244
tp3958
a(F0.5
F1.0471975803375244
tp3959
a(F0.5
F1.0471975803375244
tp3960
a(F0.05000000074505806
F1.0471975803375244
tp3961
a(F0.0
F0.0
tp3962
a(F0.5
F1.0471975803375244
tp3963
a(F0.5
F1.0471975803375244
tp3964
a(F0.0
F0.0
tp3965
a(F0.5
F1.0471975803375244
tp3966
a(F0.5
F1.0471975803375244
tp3967
a(F0.0
F0.0
tp3968
a(F0.0
F0.0
tp3969
a(F0.5
F-1.0471975803375244
tp3970
a(F0.5
F-1.0471975803375244
tp3971
a(F0.5
F-1.0471975803375244
tp3972
a(F0.5
F-1.0471975803375244
tp3973
a(F0.5
F-0.9861865639686584
tp3974
a(F0.5
F1.0471975803375244
tp3975
a(F0.5
F1.0471975803375244
tp3976
a(F0.0
F0.0
tp3977
a(F0.0
F0.0
tp3978
a(F0.0
F0.0
tp3979
a(F0.0
F0.0
tp3980
a(F0.0
F0.0
tp3981
a(F0.0
F0.0
tp3982
a(F0.5
F-1.0471975803375244
tp3983
a(F0.5
F-1.0471975803375244
tp3984
a(F0.5
F1.0471975803375244
tp3985
a(F0.5
F1.0471975803375244
tp3986
a(F0.5
F1.0471975803375244
tp3987
a(F0.5
F1.0471975803375244
tp3988
a(F0.5
F-1.0458118915557861
tp3989
a(F0.5
F-1.047011375427246
tp3990
a(F0.5
F-1.0467039346694946
tp3991
a(F0.5
F1.0471975803375244
tp3992
a(F0.5
F1.047195315361023
tp3993
a(F0.5
F0.8700184226036072
tp3994
a(F0.5
F0.8700184226036072
tp3995
a(F0.5
F-1.0471975803375244
tp3996
a(F0.5
F-1.047196865081787
tp3997
a(F0.5
F-1.04616117477417
tp3998
a(F0.5
F-1.0470765829086304
tp3999
a(F0.5
F0.6524277925491333
tp4000
a(F0.5
F0.6524277925491333
tp4001
a(F0.5
F1.0471975803375244
tp4002
a(F0.4709182381629944
F1.0471975803375244
tp4003
a(F0.4709182381629944
F1.0471975803375244
tp4004
a(F0.05000000074505806
F1.0471975803375244
tp4005
a(F0.05000000074505806
F1.0471975803375244
tp4006
a(F0.05000000074505806
F1.0471975803375244
tp4007
a(F0.05000000074505806
F1.0471975803375244
tp4008
a(F0.05000000074505806
F1.0471975803375244
tp4009
a(F0.05000000074505806
F1.0471975803375244
tp4010
a(F0.05000000074505806
F1.0471975803375244
tp4011
a(F0.05000000074505806
F1.0471975803375244
tp4012
a(F0.05000000074505806
F1.0471975803375244
tp4013
a(F0.05000000074505806
F1.0471975803375244
tp4014
a(F0.0
F0.0
tp4015
a(F0.05000000074505806
F1.0471975803375244
tp4016
a(F0.05000000074505806
F1.0471975803375244
tp4017
a(F0.05000000074505806
F1.0471975803375244
tp4018
a(F0.05000000074505806
F1.0471975803375244
tp4019
a(F0.5
F1.0471975803375244
tp4020
a(F0.5
F1.0471975803375244
tp4021
a(F0.5
F1.0471975803375244
tp4022
a(F0.5
F1.0471975803375244
tp4023
a(F0.5
F1.0471975803375244
tp4024
a(F0.5
F1.0471975803375244
tp4025
a(F0.05000000074505806
F1.0471975803375244
tp4026
a(F0.05000000074505806
F1.0471975803375244
tp4027
a(F0.5
F1.0471975803375244
tp4028
a(F0.0
F0.0
tp4029
a(F0.0
F0.0
tp4030
a(F0.0
F0.0
tp4031
a(F0.05000000074505806
F1.0471975803375244
tp4032
a(F0.05000000074505806
F1.0471975803375244
tp4033
a(F0.05000000074505806
F1.0471975803375244
tp4034
a(F0.05000000074505806
F1.0471975803375244
tp4035
a(F0.05000000074505806
F1.0471975803375244
tp4036
a(F0.05000000074505806
F1.0471975803375244
tp4037
a(F0.05000000074505806
F1.0471975803375244
tp4038
a(F0.0
F0.0
tp4039
a(F0.0
F0.0
tp4040
a(F0.0
F0.0
tp4041
a(F0.0
F0.0
tp4042
a(F0.05000000074505806
F1.0471975803375244
tp4043
a(F0.05000000074505806
F1.0471975803375244
tp4044
a(F0.05000000074505806
F1.0471975803375244
tp4045
a(F0.5
F1.0471975803375244
tp4046
a(F0.5
F1.0471975803375244
tp4047
a(F0.5
F1.0471975803375244
tp4048
a(F0.5
F1.0471975803375244
tp4049
a(F0.5
F1.0471975803375244
tp4050
a(F0.5
F-1.0214792490005493
tp4051
a(F0.5
F1.0471975803375244
tp4052
a(F0.5
F1.0471975803375244
tp4053
a(F0.5
F-1.0471975803375244
tp4054
a(F0.5
F-1.0471975803375244
tp4055
a(F0.5
F1.0471975803375244
tp4056
a(F0.5
F1.0471975803375244
tp4057
a(F0.5
F1.0471975803375244
tp4058
a(F0.5
F1.0471975803375244
tp4059
a(F0.5
F-1.0471975803375244
tp4060
a(F0.5
F1.0471975803375244
tp4061
a(F0.5
F-1.0471975803375244
tp4062
a(F0.5
F-1.0471975803375244
tp4063
a(F0.5
F-1.0471975803375244
tp4064
a(F0.5
F-1.0471975803375244
tp4065
a(F0.5
F1.0471975803375244
tp4066
a(F0.5
F-1.0471975803375244
tp4067
a(F0.5
F-1.0471975803375244
tp4068
a(F0.5
F-0.699568510055542
tp4069
a(F0.5
F-1.0471975803375244
tp4070
a(F0.5
F-1.0471975803375244
tp4071
a(F0.5
F-1.0471340417861938
tp4072
a(F0.5
F1.0471975803375244
tp4073
a(F0.5
F1.0471975803375244
tp4074
a(F0.5
F1.0471975803375244
tp4075
a(F0.5
F-1.0470659732818604
tp4076
a(F0.5
F-0.5429173111915588
tp4077
a(F0.5
F1.0471380949020386
tp4078
a(F0.5
F1.047179937362671
tp4079
a(F0.5
F-1.0471974611282349
tp4080
a(F0.5
F0.3613949716091156
tp4081
a(F0.5
F-1.0439033508300781
tp4082
a(F0.5
F1.045475721359253
tp4083
a(F0.5
F1.0471919775009155
tp4084
a(F0.5
F-0.917503297328949
tp4085
a(F0.5
F-1.028458833694458
tp4086
a(F0.5
F0.570658802986145
tp4087
a(F0.5
F-1.0319921970367432
tp4088
a(F0.0
F0.0
tp4089
a(F0.0
F0.0
tp4090
a(F0.05000000074505806
F1.0471975803375244
tp4091
a(F0.05000000074505806
F1.0471975803375244
tp4092
a(F0.05000000074505806
F1.0471975803375244
tp4093
a(F0.05000000074505806
F1.0471975803375244
tp4094
a(F0.05000000074505806
F1.0471975803375244
tp4095
a(F0.05000000074505806
F1.0471975803375244
tp4096
a(F0.05000000074505806
F1.0471975803375244
tp4097
a(F0.476079523563385
F1.0471975803375244
tp4098
a(F0.5
F1.0471975803375244
tp4099
a(F0.5
F1.0471975803375244
tp4100
a(F0.5
F1.0471975803375244
tp4101
a(F0.5
F-1.0471975803375244
tp4102
a(F0.0
F0.0
tp4103
a(F0.0
F0.0
tp4104
a(F0.0
F0.0
tp4105
a(F0.0
F0.0
tp4106
a(F0.05000000074505806
F1.0471975803375244
tp4107
a(F0.05000000074505806
F1.0471975803375244
tp4108
a(F0.05000000074505806
F1.0471975803375244
tp4109
a(F0.05000000074505806
F1.0471975803375244
tp4110
a(F0.05000000074505806
F1.0471975803375244
tp4111
a(F0.05000000074505806
F1.0471975803375244
tp4112
a(F0.05000000074505806
F1.0471975803375244
tp4113
a(F0.05000000074505806
F1.0471975803375244
tp4114
a(F0.5
F1.0471975803375244
tp4115
a(F0.5
F1.0471975803375244
tp4116
a(F0.0
F0.0
tp4117
a(F0.0
F0.0
tp4118
a(F0.0
F0.0
tp4119
a(F0.5
F-0.10150127857923508
tp4120
a(F0.5
F-1.0471704006195068
tp4121
a(F0.5
F1.0471975803375244
tp4122
a(F0.5
F1.0471975803375244
tp4123
a(F0.5
F-1.0471975803375244
tp4124
a(F0.5
F-1.0471975803375244
tp4125
a(F0.5
F-1.0471975803375244
tp4126
a(F0.5
F-1.0471975803375244
tp4127
a(F0.5
F1.0471975803375244
tp4128
a(F0.5
F1.0471975803375244
tp4129
a(F0.5
F1.0471975803375244
tp4130
a(F0.5
F-1.0471975803375244
tp4131
a(F0.5
F-1.0471975803375244
tp4132
a(F0.5
F1.0471975803375244
tp4133
a(F0.5
F1.0471975803375244
tp4134
a(F0.5
F1.0471975803375244
tp4135
a(F0.5
F-1.0471975803375244
tp4136
a(F0.5
F1.0471975803375244
tp4137
a(F0.5
F1.0471975803375244
tp4138
a(F0.5
F1.0471975803375244
tp4139
a(F0.5
F1.0471975803375244
tp4140
a(F0.5
F1.0471975803375244
tp4141
a(F0.5
F1.0471975803375244
tp4142
a(F0.5
F1.0471975803375244
tp4143
a(F0.5
F1.0471975803375244
tp4144
a(F0.5
F1.0471975803375244
tp4145
a(F0.5
F1.0471975803375244
tp4146
a(F0.4966774582862854
F1.047137975692749
tp4147
a(F0.05000000074505806
F0.9935348629951477
tp4148
a(F0.05000000074505806
F0.9935348629951477
tp4149
a(F0.4999808669090271
F-1.0471975803375244
tp4150
a(F0.5
F-1.0471975803375244
tp4151
a(F0.5
F1.0471975803375244
tp4152
a(F0.5
F1.0471975803375244
tp4153
a(F0.05000000074505806
F1.0471975803375244
tp4154
a(F0.05000000074505806
F1.0471975803375244
tp4155
a(F0.05000000074505806
F1.0471975803375244
tp4156
a(F0.05000000074505806
F1.0471975803375244
tp4157
a(F0.05000000074505806
F1.0471975803375244
tp4158
a(F0.05000000074505806
F1.0471975803375244
tp4159
a(F0.05000000074505806
F1.0471975803375244
tp4160
a(F0.05000000074505806
F1.0471975803375244
tp4161
a(F0.05000000074505806
F1.0471975803375244
tp4162
a(F0.05000000074505806
F1.0471975803375244
tp4163
a(F0.05000000074505806
F1.0471975803375244
tp4164
a(F0.05000000074505806
F1.0471975803375244
tp4165
a(F0.05000000074505806
F1.0471975803375244
tp4166
a(F0.05000000074505806
F1.0471975803375244
tp4167
a(F0.0
F0.0
tp4168
a(F0.0
F0.0
tp4169
a(F0.5
F1.0471975803375244
tp4170
a(F0.5
F1.0471975803375244
tp4171
a(F0.5
F1.0471975803375244
tp4172
a(F0.5
F1.0471975803375244
tp4173
a(F0.5
F1.0471975803375244
tp4174
a(F0.5
F-1.0471975803375244
tp4175
a(F0.5
F-1.0471975803375244
tp4176
a(F0.5
F-1.0471975803375244
tp4177
a(F0.5
F1.0471975803375244
tp4178
a(F0.5
F1.0471975803375244
tp4179
a(F0.0
F0.0
tp4180
a(F0.0
F0.0
tp4181
a(F0.0
F0.0
tp4182
a(F0.0
F0.0
tp4183
a(F0.0
F0.0
tp4184
a(F0.05000000074505806
F1.0471975803375244
tp4185
a(F0.05000000074505806
F1.0471975803375244
tp4186
a(F0.05000000074505806
F1.0471975803375244
tp4187
a(F0.05000000074505806
F1.0471975803375244
tp4188
a(F0.05000000074505806
F1.0471975803375244
tp4189
a(F0.05000000074505806
F1.0471975803375244
tp4190
a(F0.05000000074505806
F1.0471975803375244
tp4191
a(F0.0
F0.0
tp4192
a(F0.0
F0.0
tp4193
a(F0.0
F0.0
tp4194
a(F0.0
F0.0
tp4195
a(F0.5
F-1.0471971035003662
tp4196
a(F0.5
F1.0471975803375244
tp4197
a(F0.5
F-1.0471975803375244
tp4198
a(F0.5
F-1.0471975803375244
tp4199
a(F0.5
F1.0471975803375244
tp4200
a(F0.5
F1.0471975803375244
tp4201
a(F0.5
F-1.0471975803375244
tp4202
a(F0.5
F-1.0471975803375244
tp4203
a(F0.5
F-1.0471975803375244
tp4204
a(F0.5
F1.0471975803375244
tp4205
a(F0.5
F1.0471975803375244
tp4206
a(F0.5
F1.0471975803375244
tp4207
a(F0.5
F1.0471975803375244
tp4208
a(F0.5
F-1.0471975803375244
tp4209
a(F0.5
F-1.0471975803375244
tp4210
a(F0.5
F1.0471975803375244
tp4211
a(F0.0
F0.0
tp4212
a(F0.5
F1.0471975803375244
tp4213
a(F0.5
F1.0471975803375244
tp4214
a(F0.5
F1.0471975803375244
tp4215
a(F0.5
F-1.0471975803375244
tp4216
a(F0.5
F1.0471975803375244
tp4217
a(F0.5
F1.0471959114074707
tp4218
a(F0.5
F1.0471975803375244
tp4219
a(F0.5
F1.0471975803375244
tp4220
a(F0.49979367852211
F1.0471975803375244
tp4221
a(F0.49979367852211
F1.0471975803375244
tp4222
a(F0.0
F0.0
tp4223
a(F0.0
F0.0
tp4224
a(F0.05000000074505806
F1.0471975803375244
tp4225
a(F0.05000000074505806
F1.0471975803375244
tp4226
a(F0.05000000074505806
F1.0471975803375244
tp4227
a(F0.05000000074505806
F1.0471975803375244
tp4228
a(F0.05000000074505806
F1.0471975803375244
tp4229
a(F0.0
F0.0
tp4230
a(F0.05000000074505806
F1.0471975803375244
tp4231
a(F0.0
F0.0
tp4232
a(F0.0
F0.0
tp4233
a(F0.0
F0.0
tp4234
a(F0.0
F0.0
tp4235
a(F0.0
F0.0
tp4236
a(F0.05000000074505806
F1.0471975803375244
tp4237
a(F0.05000000074505806
F1.0471975803375244
tp4238
a(F0.0
F0.0
tp4239
a(F0.05000000074505806
F1.0471975803375244
tp4240
a(F0.5
F1.0471975803375244
tp4241
a(F0.5
F1.0471975803375244
tp4242
a(F0.5
F1.0471975803375244
tp4243
a(F0.5
F1.0471975803375244
tp4244
a(F0.5
F1.0471938848495483
tp4245
a(F0.5
F1.0471975803375244
tp4246
a(F0.5
F-1.0471975803375244
tp4247
a(F0.5
F-1.0471975803375244
tp4248
a(F0.5
F-1.0471975803375244
tp4249
a(F0.5
F1.0471975803375244
tp4250
a(F0.5
F-1.0471975803375244
tp4251
a(F0.5
F1.0471975803375244
tp4252
a(F0.5
F1.0471975803375244
tp4253
a(F0.5
F1.0471975803375244
tp4254
a(F0.5
F1.0471975803375244
tp4255
a(F0.5
F1.0471975803375244
tp4256
a(F0.0
F0.0
tp4257
a(F0.0
F0.0
tp4258
a(F0.5
F-1.0471975803375244
tp4259
a(F0.5
F1.0470675230026245
tp4260
a(F0.0
F0.0
tp4261
a(F0.5
F1.0471971035003662
tp4262
a(F0.5
F1.0471975803375244
tp4263
a(F0.5
F1.0471975803375244
tp4264
a(F0.05000000074505806
F1.0471975803375244
tp4265
a(F0.05000000074505806
F1.0471975803375244
tp4266
a(F0.05000000074505806
F1.0471975803375244
tp4267
a(F0.05000000074505806
F1.0471975803375244
tp4268
a(F0.05000000074505806
F1.0471975803375244
tp4269
a(F0.0
F0.0
tp4270
a(F0.0
F0.0
tp4271
a(F0.0
F0.0
tp4272
a(F0.0
F0.0
tp4273
a(F0.0
F0.0
tp4274
a(F0.0
F0.0
tp4275
a(F0.0
F0.0
tp4276
a(F0.0
F0.0
tp4277
a(F0.05000000074505806
F1.0471975803375244
tp4278
a(F0.05000000074505806
F1.0471975803375244
tp4279
a(F0.5
F1.0471975803375244
tp4280
a(F0.5
F1.0471975803375244
tp4281
a(F0.5
F1.0471975803375244
tp4282
a(F0.5
F1.0471975803375244
tp4283
a(F0.5
F-1.036728024482727
tp4284
a(F0.5
F-1.0471975803375244
tp4285
a(F0.5
F-1.0471975803375244
tp4286
a(F0.5
F1.0471975803375244
tp4287
a(F0.5
F1.0471975803375244
tp4288
a(F0.0
F0.0
tp4289
a(F0.0
F0.0
tp4290
a(F0.0
F0.0
tp4291
a(F0.0
F0.0
tp4292
a(F0.0
F0.0
tp4293
a(F0.0
F0.0
tp4294
a(F0.0
F0.0
tp4295
a(F0.0
F0.0
tp4296
a(F0.0
F0.0
tp4297
a(F0.0
F0.0
tp4298
a(F0.5
F1.0471975803375244
tp4299
a(F0.5
F-1.0471975803375244
tp4300
a(F0.0
F0.0
tp4301
a(F0.0
F0.0
tp4302
a(F0.5
F-1.0471975803375244
tp4303
a(F0.5
F1.0471975803375244
tp4304
a(F0.5
F1.0471975803375244
tp4305
a(F0.5
F1.0471975803375244
tp4306
a(F0.5
F1.0471975803375244
tp4307
a(F0.5
F-1.0471975803375244
tp4308
a(F0.5
F-1.0471975803375244
tp4309
a(F0.5
F1.0471975803375244
tp4310
a(F0.5
F1.0471975803375244
tp4311
a(F0.5
F-1.0471975803375244
tp4312
a(F0.5
F-1.0471975803375244
tp4313
a(F0.5
F-1.0471975803375244
tp4314
a(F0.5
F1.0471975803375244
tp4315
a(F0.5
F1.038255214691162
tp4316
a(F0.5
F1.0467716455459595
tp4317
a(F0.5
F1.0467716455459595
tp4318
a(F0.5
F1.0471975803375244
tp4319
a(F0.5
F1.0471975803375244
tp4320
a(F0.5
F1.0471975803375244
tp4321
a(F0.5
F1.0471975803375244
tp4322
a(F0.49997764825820923
F1.0471975803375244
tp4323
a(F0.49997764825820923
F1.0471975803375244
tp4324
a(F0.5
F-1.0471975803375244
tp4325
a(F0.5
F-1.0471975803375244
tp4326
a(F0.5
F1.0471975803375244
tp4327
a(F0.5
F1.0471975803375244
tp4328
a(F0.05000000074505806
F1.0471975803375244
tp4329
a(F0.05000000074505806
F1.0471975803375244
tp4330
a(F0.05000000074505806
F1.0471975803375244
tp4331
a(F0.05000000074505806
F1.0471975803375244
tp4332
a(F0.05000000074505806
F1.0471975803375244
tp4333
a(F0.05000000074505806
F1.0471975803375244
tp4334
a(F0.05000000074505806
F1.0471975803375244
tp4335
a(F0.05000000074505806
F1.0471975803375244
tp4336
a(F0.05000000074505806
F1.0471975803375244
tp4337
a(F0.05000000074505806
F1.0471975803375244
tp4338
a(F0.05000000074505806
F1.0471975803375244
tp4339
a(F0.05000000074505806
F1.0471975803375244
tp4340
a(F0.05000000074505806
F1.0471975803375244
tp4341
a(F0.4999998211860657
F1.0471975803375244
tp4342
a(F0.5
F1.0471975803375244
tp4343
a(F0.5
F1.0471975803375244
tp4344
a(F0.5
F1.0471975803375244
tp4345
a(F0.5
F1.0471975803375244
tp4346
a(F0.5
F1.0471975803375244
tp4347
a(F0.5
F1.0471975803375244
tp4348
a(F0.5
F1.0471975803375244
tp4349
a(F0.05000000074505806
F1.0471975803375244
tp4350
a(F0.49726441502571106
F1.0471975803375244
tp4351
a(F0.5
F1.0340687036514282
tp4352
a(F0.0
F0.0
tp4353
a(F0.0
F0.0
tp4354
a(F0.5
F-1.0471975803375244
tp4355
a(F0.5
F-1.0471975803375244
tp4356
a(F0.5
F-1.0471975803375244
tp4357
a(F0.5
F-1.0471975803375244
tp4358
a(F0.5
F-1.0471975803375244
tp4359
a(F0.5
F1.0471975803375244
tp4360
a(F0.5
F1.0471975803375244
tp4361
a(F0.5
F1.0471975803375244
tp4362
a(F0.5
F-1.0471975803375244
tp4363
a(F0.0
F0.0
tp4364
a(F0.0
F0.0
tp4365
a(F0.0
F0.0
tp4366
a(F0.0
F0.0
tp4367
a(F0.0
F0.0
tp4368
a(F0.5
F1.0471975803375244
tp4369
a(F0.5
F1.0471975803375244
tp4370
a(F0.5
F1.0471975803375244
tp4371
a(F0.5
F1.0471965074539185
tp4372
a(F0.5
F-1.0471975803375244
tp4373
a(F0.5
F-1.0471975803375244
tp4374
a(F0.5
F-1.0471975803375244
tp4375
a(F0.5
F1.0471975803375244
tp4376
a(F0.0
F0.0
tp4377
a(F0.0
F0.0
tp4378
a(F0.0
F0.0
tp4379
a(F0.5
F-1.0471975803375244
tp4380
a(F0.0
F0.0
tp4381
a(F0.5
F1.0471975803375244
tp4382
a(F0.5
F1.0471975803375244
tp4383
a(F0.5
F1.0471975803375244
tp4384
a(F0.5
F-0.9605150818824768
tp4385
a(F0.5
F-1.0471975803375244
tp4386
a(F0.5
F-1.0471975803375244
tp4387
a(F0.5
F1.0471975803375244
tp4388
a(F0.5
F0.534687340259552
tp4389
a(F0.5
F-1.0471975803375244
tp4390
a(F0.5
F-1.0471975803375244
tp4391
a(F0.5
F-1.0471975803375244
tp4392
a(F0.5
F-1.0471975803375244
tp4393
a(F0.5
F-1.0460898876190186
tp4394
a(F0.5
F1.0471975803375244
tp4395
a(F0.5
F1.0471974611282349
tp4396
a(F0.5
F0.5891083478927612
tp4397
a(F0.5
F1.0471889972686768
tp4398
a(F0.0
F0.0
tp4399
a(F0.5
F-0.3912908434867859
tp4400
a(F0.5
F1.0471975803375244
tp4401
a(F0.0
F0.0
tp4402
a(F0.5
F-1.0469796657562256
tp4403
a(F0.5
F1.0471975803375244
tp4404
a(F0.0
F0.0
tp4405
a(F0.5
F1.0307352542877197
tp4406
a(F0.5
F-1.046292781829834
tp4407
a(F0.5
F1.0460299253463745
tp4408
a(F0.0
F0.0
tp4409
a(F0.0
F0.0
tp4410
a(F0.05000000074505806
F1.0471975803375244
tp4411
a(F0.05000000074505806
F1.0471975803375244
tp4412
a(F0.05000000074505806
F1.0471975803375244
tp4413
a(F0.0
F0.0
tp4414
a(F0.0
F0.0
tp4415
a(F0.0
F0.0
tp4416
a(F0.0
F0.0
tp4417
a(F0.0
F0.0
tp4418
a(F0.5
F1.0471975803375244
tp4419
a(F0.5
F1.0471975803375244
tp4420
a(F0.0
F0.0
tp4421
a(F0.5
F1.0471975803375244
tp4422
a(F0.5
F0.32571032643318176
tp4423
a(F0.0
F0.0
tp4424
a(F0.5
F-1.0471975803375244
tp4425
a(F0.5
F-1.0471975803375244
tp4426
a(F0.5
F-1.0471975803375244
tp4427
a(F0.5
F1.0471975803375244
tp4428
a(F0.5
F1.0471975803375244
tp4429
a(F0.0
F0.0
tp4430
a(F0.0
F0.0
tp4431
a(F0.05000000074505806
F1.0471975803375244
tp4432
a(F0.05000000074505806
F1.0471975803375244
tp4433
a(F0.0
F0.0
tp4434
a(F0.0
F0.0
tp4435
a(F0.0
F0.0
tp4436
a(F0.0
F0.0
tp4437
a(F0.0
F0.0
tp4438
a(F0.0
F0.0
tp4439
a(F0.05000000074505806
F1.0471975803375244
tp4440
a(F0.0
F0.0
tp4441
a(F0.05000000074505806
F1.0471975803375244
tp4442
a(F0.05000000074505806
F1.0471975803375244
tp4443
a(F0.05000000074505806
F1.0471975803375244
tp4444
a(F0.05000000074505806
F1.0471975803375244
tp4445
a(F0.5
F1.0471975803375244
tp4446
a(F0.5
F1.0471975803375244
tp4447
a(F0.5
F1.0471975803375244
tp4448
a(F0.5
F1.0471975803375244
tp4449
a(F0.0
F0.0
tp4450
a(F0.5
F0.17274458706378937
tp4451
a(F0.5
F-1.0471975803375244
tp4452
a(F0.5
F1.0471975803375244
tp4453
a(F0.5
F1.0471975803375244
tp4454
a(F0.5
F1.0471975803375244
tp4455
a(F0.5
F1.0471975803375244
tp4456
a(F0.5
F-1.0471975803375244
tp4457
a(F0.5
F1.0471975803375244
tp4458
a(F0.5
F-1.0471975803375244
tp4459
a(F0.5
F1.0471975803375244
tp4460
a(F0.5
F-1.0471975803375244
tp4461
a(F0.5
F1.0471975803375244
tp4462
a(F0.5
F-1.0471975803375244
tp4463
a(F0.5
F-1.047194242477417
tp4464
a(F0.5
F1.0471974611282349
tp4465
a(F0.5
F-1.0471975803375244
tp4466
a(F0.5
F-1.0471975803375244
tp4467
a(F0.5
F-1.0471975803375244
tp4468
a(F0.5
F-1.0471975803375244
tp4469
a(F0.5
F-1.0471975803375244
tp4470
a(F0.5
F-1.0471975803375244
tp4471
a(F0.5
F-1.0471975803375244
tp4472
a(F0.5
F-1.0471975803375244
tp4473
a(F0.5
F1.0467709302902222
tp4474
a(F0.5
F-1.0471975803375244
tp4475
a(F0.5
F-1.0471975803375244
tp4476
a(F0.5
F1.0471975803375244
tp4477
a(F0.5
F1.0471975803375244
tp4478
a(F0.5
F1.0471975803375244
tp4479
a(F0.5
F1.0471975803375244
tp4480
a(F0.5
F1.0471975803375244
tp4481
a(F0.05000000074505806
F1.0471975803375244
tp4482
a(F0.05000000074505806
F1.0471975803375244
tp4483
a(F0.05000000074505806
F1.0471975803375244
tp4484
a(F0.05000000074505806
F1.0471975803375244
tp4485
a(F0.05000000074505806
F1.0471975803375244
tp4486
a(F0.05000000074505806
F1.0471975803375244
tp4487
a(F0.05000000074505806
F1.0471975803375244
tp4488
a(F0.05000000074505806
F1.0471975803375244
tp4489
a(F0.05000000074505806
F1.0471975803375244
tp4490
a(F0.05000000074505806
F1.0471975803375244
tp4491
a(F0.0
F0.0
tp4492
a(F0.05000000074505806
F1.0471975803375244
tp4493
a(F0.05000000074505806
F1.0471975803375244
tp4494
a(F0.05000000074505806
F1.0471975803375244
tp4495
a(F0.05000000074505806
F1.0471975803375244
tp4496
a(F0.05000000074505806
F1.0471975803375244
tp4497
a(F0.05000000074505806
F1.0471975803375244
tp4498
a(F0.05000000074505806
F1.0471975803375244
tp4499
a(F0.05000000074505806
F1.0471975803375244
tp4500
a(F0.49994218349456787
F1.0471975803375244
tp4501
a(F0.5
F1.0471975803375244
tp4502
a(F0.5
F1.0471975803375244
tp4503
a(F0.5
F1.0471975803375244
tp4504
a(F0.5
F1.0471975803375244
tp4505
a(F0.5
F1.0471975803375244
tp4506
a(F0.5
F-1.0471975803375244
tp4507
a(F0.5
F1.0471975803375244
tp4508
a(F0.5
F1.039179801940918
tp4509
a(F0.5
F0.5928448438644409
tp4510
a(F0.5
F-1.0471975803375244
tp4511
a(F0.5
F-1.0471975803375244
tp4512
a(F0.5
F1.0471975803375244
tp4513
a(F0.49999934434890747
F1.0471975803375244
tp4514
a(F0.47529780864715576
F1.0471975803375244
tp4515
a(F0.05000000074505806
F1.0471975803375244
tp4516
a(F0.05000000074505806
F1.0471975803375244
tp4517
a(F0.05000000074505806
F1.0471975803375244
tp4518
a(F0.05000000074505806
F1.0471975803375244
tp4519
a(F0.05000000074505806
F1.0471975803375244
tp4520
a(F0.05000000074505806
F1.0471975803375244
tp4521
a(F0.05000000074505806
F1.0471975803375244
tp4522
a(F0.05000000074505806
F1.0471975803375244
tp4523
a(F0.05000000074505806
F1.0471975803375244
tp4524
a(F0.05000000074505806
F1.0471975803375244
tp4525
a(F0.05000000074505806
F1.0471975803375244
tp4526
a(F0.05000000074505806
F1.0471975803375244
tp4527
a(F0.05000000074505806
F1.0471975803375244
tp4528
a(F0.05000000074505806
F1.0471975803375244
tp4529
a(F0.5
F-1.0471975803375244
tp4530
a(F0.5
F1.0471975803375244
tp4531
a(F0.5
F-1.0396982431411743
tp4532
a(F0.5
F1.0471975803375244
tp4533
a(F0.5
F-1.0471975803375244
tp4534
a(F0.05000000074505806
F1.0471975803375244
tp4535
a(F0.05000000074505806
F-1.0471975803375244
tp4536
a(F0.05000000074505806
F1.0471975803375244
tp4537
a(F0.14239884912967682
F-1.0471975803375244
tp4538
a(F0.05000000074505806
F1.0471975803375244
tp4539
a(F0.05000000074505806
F-1.0471975803375244
tp4540
a(F0.05000000074505806
F1.0471975803375244
tp4541
a(F0.05000000074505806
F-1.0471975803375244
tp4542
a(F0.05000000074505806
F1.0471975803375244
tp4543
a(F0.05000000074505806
F-1.0471975803375244
tp4544
a(F0.05000000074505806
F1.0471975803375244
tp4545
a(F0.05000000074505806
F-1.0471975803375244
tp4546
a(F0.05000000074505806
F1.0471975803375244
tp4547
a(F0.0
F0.0
tp4548
a(F0.05000000074505806
F-1.0471975803375244
tp4549
a(F0.05000000074505806
F1.0471975803375244
tp4550
a(F0.05000000074505806
F1.0471975803375244
tp4551
a(F0.05000000074505806
F-1.0471975803375244
tp4552
a(F0.05000000074505806
F1.0471975803375244
tp4553
a(F0.05000000074505806
F-1.0471975803375244
tp4554
a(F0.05000000074505806
F1.0471975803375244
tp4555
a(F0.0
F0.0
tp4556
a(F0.05000000074505806
F-1.0471975803375244
tp4557
a(F0.05000000074505806
F1.0471975803375244
tp4558
a(F0.05000000074505806
F1.047194004058838
tp4559
a(F0.05000000074505806
F1.0471975803375244
tp4560
a(F0.05000000074505806
F1.0471975803375244
tp4561
a(F0.0
F0.0
tp4562
a(F0.05000000074505806
F1.0471975803375244
tp4563
a(F0.05000000074505806
F1.0471975803375244
tp4564
a(F0.05000000074505806
F1.0471975803375244
tp4565
a(F0.05000000074505806
F1.0471975803375244
tp4566
a(F0.05000000074505806
F1.0471975803375244
tp4567
a(F0.5
F1.0471975803375244
tp4568
a(F0.5
F1.0471975803375244
tp4569
a(F0.0
F0.0
tp4570
a(F0.5
F1.0471975803375244
tp4571
a(F0.5
F1.0471975803375244
tp4572
a(F0.0
F0.0
tp4573
a(F0.0
F0.0
tp4574
a(F0.5
F1.0471975803375244
tp4575
a(F0.5
F1.0471975803375244
tp4576
a(F0.5
F-1.0462422370910645
tp4577
a(F0.5
F1.0471975803375244
tp4578
a(F0.5
F1.0471975803375244
tp4579
a(F0.5
F1.0471975803375244
tp4580
a(F0.5
F1.0471975803375244
tp4581
a(F0.5
F-1.0471975803375244
tp4582
a(F0.5
F-1.0471975803375244
tp4583
a(F0.0
F0.0
tp4584
a(F0.0
F0.0
tp4585
a(F0.0
F0.0
tp4586
a(F0.0
F0.0
tp4587
a(F0.0
F0.0
tp4588
a(F0.5
F-1.0471974611282349
tp4589
a(F0.0
F0.0
tp4590
a(F0.5
F1.0471975803375244
tp4591
a(F0.5
F-1.0471975803375244
tp4592
a(F0.5
F-1.0471975803375244
tp4593
a(F0.5
F-1.0471975803375244
tp4594
a(F0.5
F-1.0471975803375244
tp4595
a(F0.5
F-1.0471975803375244
tp4596
a(F0.5
F-1.0471975803375244
tp4597
a(F0.5
F-1.0471975803375244
tp4598
a(F0.5
F-1.0471975803375244
tp4599
a(F0.5
F-1.0471975803375244
tp4600
a(F0.5
F-1.0471967458724976
tp4601
a(F0.0
F0.0
tp4602
a(F0.0
F0.0
tp4603
a(F0.0
F0.0
tp4604
a(F0.0
F0.0
tp4605
a(F0.5
F-1.0471975803375244
tp4606
a(F0.5
F-1.0471975803375244
tp4607
a(F0.5
F-1.0471975803375244
tp4608
a(F0.5
F1.0471162796020508
tp4609
a(F0.5
F0.5753945112228394
tp4610
a(F0.5
F-1.0471975803375244
tp4611
a(F0.0
F0.0
tp4612
a(F0.0
F0.0
tp4613
a(F0.0
F0.0
tp4614
a(F0.0
F0.0
tp4615
a(F0.0
F0.0
tp4616
a(F0.0
F0.0
tp4617
a(F0.0
F0.0
tp4618
a(F0.0
F0.0
tp4619
a(F0.0
F0.0
tp4620
a(F0.5
F1.0471975803375244
tp4621
a(F0.5
F1.0471975803375244
tp4622
a(F0.5
F1.0471975803375244
tp4623
a(F0.0
F0.0
tp4624
a(F0.0
F0.0
tp4625
a(F0.0
F0.0
tp4626
a(F0.05000000074505806
F1.0471975803375244
tp4627
a(F0.05000000074505806
F1.0471975803375244
tp4628
a(F0.0
F0.0
tp4629
a(F0.05000000074505806
F1.0471975803375244
tp4630
a(F0.0
F0.0
tp4631
a(F0.0
F0.0
tp4632
a(F0.0
F0.0
tp4633
a(F0.0
F0.0
tp4634
a(F0.0
F0.0
tp4635
a(F0.5
F1.0471975803375244
tp4636
a(F0.5
F-1.0471975803375244
tp4637
a(F0.5
F-1.0471975803375244
tp4638
a(F0.5
F1.0471975803375244
tp4639
a(F0.5
F1.0471975803375244
tp4640
a(F0.5
F1.0471975803375244
tp4641
a(F0.5
F-1.0471974611282349
tp4642
a(F0.5
F1.0471975803375244
tp4643
a(F0.5
F-1.0471975803375244
tp4644
a(F0.5
F-1.0471975803375244
tp4645
a(F0.5
F-1.0471975803375244
tp4646
a(F0.0
F0.0
tp4647
a(F0.0
F0.0
tp4648
a(F0.0
F0.0
tp4649
a(F0.5
F1.0471975803375244
tp4650
a(F0.5
F-1.0471522808074951
tp4651
a(F0.5
F1.0471749305725098
tp4652
a(F0.0
F0.0
tp4653
a(F0.5
F1.0471975803375244
tp4654
a(F0.0
F0.0
tp4655
a(F0.5
F-1.0471975803375244
tp4656
a(F0.0
F0.0
tp4657
a(F0.0
F0.0
tp4658
a(F0.0
F0.0
tp4659
a(F0.0
F0.0
tp4660
a(F0.5
F1.0471975803375244
tp4661
a(F0.5
F1.0471975803375244
tp4662
a(F0.5
F-1.0471975803375244
tp4663
a(F0.0
F0.0
tp4664
a(F0.5
F1.0471975803375244
tp4665
a(F0.5
F-1.0471975803375244
tp4666
a(F0.5
F-1.0471824407577515
tp4667
a(F0.5
F1.0471975803375244
tp4668
a(F0.5
F-1.0471975803375244
tp4669
a(F0.5
F-1.0471975803375244
tp4670
a(F0.5
F-1.0471975803375244
tp4671
a(F0.5
F-1.0471975803375244
tp4672
a(F0.5
F1.0467146635055542
tp4673
a(F0.5
F1.0471975803375244
tp4674
a(F0.5
F1.0471975803375244
tp4675
a(F0.5
F1.0471975803375244
tp4676
a(F0.5
F-1.0471969842910767
tp4677
a(F0.5
F-1.0195655822753906
tp4678
a(F0.5
F-0.7942108511924744
tp4679
a(F0.5
F1.0429855585098267
tp4680
a(F0.5
F1.0471973419189453
tp4681
a(F0.5
F1.0471975803375244
tp4682
a(F0.5
F1.0471975803375244
tp4683
a(F0.49842798709869385
F1.0471975803375244
tp4684
a(F0.49999845027923584
F1.0471975803375244
tp4685
a(F0.49999845027923584
F1.0471975803375244
tp4686
a(F0.5
F1.0471975803375244
tp4687
a(F0.05000000074505806
F1.0471975803375244
tp4688
a(F0.05000000074505806
F1.0471975803375244
tp4689
a(F0.05000000074505806
F1.0471975803375244
tp4690
a(F0.05000000074505806
F1.0471975803375244
tp4691
a(F0.05000000074505806
F1.0471975803375244
tp4692
a(F0.05000000074505806
F1.0471975803375244
tp4693
a(F0.05000000074505806
F1.0471975803375244
tp4694
a(F0.05000000074505806
F1.0471975803375244
tp4695
a(F0.05000000074505806
F1.0471975803375244
tp4696
a(F0.05000000074505806
F1.0471975803375244
tp4697
a(F0.5
F1.0471975803375244
tp4698
a(F0.5
F1.0471975803375244
tp4699
a(F0.5
F1.0471975803375244
tp4700
a(F0.05000000074505806
F1.0471975803375244
tp4701
a(F0.05000000074505806
F1.0471975803375244
tp4702
a(F0.5
F1.0471975803375244
tp4703
a(F0.5
F1.0471975803375244
tp4704
a(F0.0
F0.0
tp4705
a(F0.38318753242492676
F1.0471975803375244
tp4706
a(F0.38318753242492676
F1.0471975803375244
tp4707
a(F0.5
F1.0471975803375244
tp4708
a(F0.5
F1.0471975803375244
tp4709
a(F0.0
F0.0
tp4710
a(F0.0
F0.0
tp4711
a(F0.5
F1.0471975803375244
tp4712
a(F0.5
F1.0471975803375244
tp4713
a(F0.5
F1.0471975803375244
tp4714
a(F0.5
F1.0471975803375244
tp4715
a(F0.5
F-1.0471975803375244
tp4716
a(F0.5
F-1.0471975803375244
tp4717
a(F0.5
F-1.0471893548965454
tp4718
a(F0.5
F1.0471975803375244
tp4719
a(F0.5
F1.0471975803375244
tp4720
a(F0.5
F1.0471975803375244
tp4721
a(F0.5
F1.0471975803375244
tp4722
a(F0.5
F1.0471975803375244
tp4723
a(F0.0
F0.0
tp4724
a(F0.0
F0.0
tp4725
a(F0.0
F0.0
tp4726
a(F0.5
F1.0471975803375244
tp4727
a(F0.5
F1.0471975803375244
tp4728
a(F0.5
F1.0471975803375244
tp4729
a(F0.5
F-1.0471975803375244
tp4730
a(F0.5
F-1.0471975803375244
tp4731
a(F0.5
F-1.0471975803375244
tp4732
a(F0.5
F-1.0471975803375244
tp4733
a(F0.5
F-1.0471975803375244
tp4734
a(F0.5
F-1.0471975803375244
tp4735
a(F0.5
F0.9925985932350159
tp4736
a(F0.5
F-1.0467422008514404
tp4737
a(F0.5
F-1.0471975803375244
tp4738
a(F0.5
F-1.0471975803375244
tp4739
a(F0.5
F-1.0471974611282349
tp4740
a(F0.5
F1.0471975803375244
tp4741
a(F0.5
F-1.0471957921981812
tp4742
a(F0.5
F-1.0471957921981812
tp4743
a(F0.5
F1.0471975803375244
tp4744
a(F0.49999433755874634
F1.0471975803375244
tp4745
a(F0.0
F0.0
tp4746
a(F0.0
F0.0
tp4747
a(F0.5
F1.0471975803375244
tp4748
a(F0.5
F1.0471975803375244
tp4749
a(F0.5
F1.0471975803375244
tp4750
a(F0.5
F-1.0469789505004883
tp4751
a(F0.5
F1.0471975803375244
tp4752
a(F0.5
F0.9680164456367493
tp4753
a(F0.5
F-1.0471975803375244
tp4754
a(F0.5
F-1.0471975803375244
tp4755
a(F0.5
F-1.0471975803375244
tp4756
a(F0.5
F1.0471975803375244
tp4757
a(F0.5
F1.0471975803375244
tp4758
a(F0.5
F1.0471975803375244
tp4759
a(F0.0
F0.0
tp4760
a(F0.0
F0.0
tp4761
a(F0.0
F0.0
tp4762
a(F0.0
F0.0
tp4763
a(F0.0
F0.0
tp4764
a(F0.0
F0.0
tp4765
a(F0.05000000074505806
F1.0471975803375244
tp4766
a(F0.05000000074505806
F1.0471975803375244
tp4767
a(F0.05000000074505806
F1.0471975803375244
tp4768
a(F0.05000000074505806
F1.0471975803375244
tp4769
a(F0.05000000074505806
F1.0471975803375244
tp4770
a(F0.05000000074505806
F1.0471975803375244
tp4771
a(F0.05000000074505806
F1.0471975803375244
tp4772
a(F0.05000000074505806
F1.0471975803375244
tp4773
a(F0.05000000074505806
F1.0471975803375244
tp4774
a(F0.05000000074505806
F1.0471975803375244
tp4775
a(F0.05000000074505806
F1.0471975803375244
tp4776
a(F0.05000000074505806
F1.0471975803375244
tp4777
a(F0.05000000074505806
F1.0471975803375244
tp4778
a(F0.05000000074505806
F1.0471975803375244
tp4779
a(F0.05000000074505806
F1.0471975803375244
tp4780
a(F0.05000000074505806
F1.0471975803375244
tp4781
a(F0.05000000074505806
F1.0471975803375244
tp4782
a(F0.05000000074505806
F1.0471975803375244
tp4783
a(F0.05000000074505806
F1.0471975803375244
tp4784
a(F0.05000000074505806
F1.0471975803375244
tp4785
a(F0.5
F1.0471975803375244
tp4786
a(F0.5
F1.0471975803375244
tp4787
a(F0.5
F1.0471975803375244
tp4788
a(F0.5
F1.0471802949905396
tp4789
a(F0.5
F-1.0471975803375244
tp4790
a(F0.5
F-1.0471975803375244
tp4791
a(F0.5
F-1.0471975803375244
tp4792
a(F0.5
F1.0459119081497192
tp4793
a(F0.5
F1.0471975803375244
tp4794
a(F0.5
F1.0471975803375244
tp4795
a(F0.5
F1.0471689701080322
tp4796
a(F0.5
F-1.0471975803375244
tp4797
a(F0.0
F0.0
tp4798
a(F0.0
F0.0
tp4799
a(F0.5
F-1.0471975803375244
tp4800
a(F0.5
F-1.0471975803375244
tp4801
a(F0.5
F-1.0471975803375244
tp4802
a(F0.5
F1.0471975803375244
tp4803
a(F0.5
F-1.0471975803375244
tp4804
a(F0.5
F-1.0471975803375244
tp4805
a(F0.5
F-1.0471975803375244
tp4806
a(F0.5
F1.0471975803375244
tp4807
a(F0.5
F1.0471975803375244
tp4808
a(F0.5
F-1.0471975803375244
tp4809
a(F0.5
F-1.0471975803375244
tp4810
a(F0.5
F-1.0471975803375244
tp4811
a(F0.0
F0.0
tp4812
a(F0.0
F0.0
tp4813
a(F0.0
F0.0
tp4814
a(F0.0
F0.0
tp4815
a(F0.5
F1.0471975803375244
tp4816
a(F0.5
F1.0471975803375244
tp4817
a(F0.5
F-1.047013759613037
tp4818
a(F0.5
F-1.047013759613037
tp4819
a(F0.5
F1.0471975803375244
tp4820
a(F0.5
F0.5751684308052063
tp4821
a(F0.5
F-1.0471891164779663
tp4822
a(F0.4999988079071045
F1.0471975803375244
tp4823
a(F0.5
F1.0471972227096558
tp4824
a(F0.5
F1.0471975803375244
tp4825
a(F0.05000000074505806
F1.0471975803375244
tp4826
a(F0.05000000074505806
F1.0471975803375244
tp4827
a(F0.05000000074505806
F1.0471975803375244
tp4828
a(F0.05000000074505806
F1.0471975803375244
tp4829
a(F0.05000000074505806
F1.0471975803375244
tp4830
a(F0.05000000074505806
F1.0471975803375244
tp4831
a(F0.05000000074505806
F1.0471975803375244
tp4832
a(F0.05000000074505806
F1.0471975803375244
tp4833
a(F0.05000000074505806
F1.0471975803375244
tp4834
a(F0.05000000074505806
F1.0471975803375244
tp4835
a(F0.05000000074505806
F1.0471975803375244
tp4836
a(F0.05000000074505806
F1.0471975803375244
tp4837
a(F0.05000000074505806
F1.0471975803375244
tp4838
a(F0.05000000074505806
F1.0471975803375244
tp4839
a(F0.05000000074505806
F1.0471975803375244
tp4840
a(F0.5
F1.0471975803375244
tp4841
a(F0.5
F1.0471975803375244
tp4842
a(F0.5
F1.0471975803375244
tp4843
a(F0.5
F1.0471975803375244
tp4844
a(F0.4958100914955139
F1.0471975803375244
tp4845
a(F0.499999463558197
F1.0471975803375244
tp4846
a(F0.5
F1.0471975803375244
tp4847
a(F0.5
F1.0471975803375244
tp4848
a(F0.5
F1.0471975803375244
tp4849
a(F0.0
F0.0
tp4850
a(F0.0
F0.0
tp4851
a(F0.5
F-1.0471975803375244
tp4852
a(F0.5
F-1.0471975803375244
tp4853
a(F0.5
F-1.0471975803375244
tp4854
a(F0.5
F-1.0471975803375244
tp4855
a(F0.5
F-1.0471975803375244
tp4856
a(F0.5
F1.0471975803375244
tp4857
a(F0.5
F1.0471975803375244
tp4858
a(F0.5
F1.0471975803375244
tp4859
a(F0.5
F-1.0471975803375244
tp4860
a(F0.5
F-1.0471975803375244
tp4861
a(F0.5
F-1.0471975803375244
tp4862
a(F0.5
F1.0471975803375244
tp4863
a(F0.0
F0.0
tp4864
a(F0.0
F0.0
tp4865
a(F0.0
F0.0
tp4866
a(F0.0
F0.0
tp4867
a(F0.5
F1.0471975803375244
tp4868
a(F0.5
F-1.0461362600326538
tp4869
a(F0.5
F-1.0471975803375244
tp4870
a(F0.5
F-1.0471782684326172
tp4871
a(F0.5
F-1.0471975803375244
tp4872
a(F0.5
F-1.0471975803375244
tp4873
a(F0.5
F-1.0471975803375244
tp4874
a(F0.5
F1.0471365451812744
tp4875
a(F0.5
F1.0471975803375244
tp4876
a(F0.5
F1.0471919775009155
tp4877
a(F0.5
F1.0471919775009155
tp4878
a(F0.5
F1.0157824754714966
tp4879
a(F0.5
F-1.0471975803375244
tp4880
a(F0.5
F0.3436114192008972
tp4881
a(F0.5
F-1.047196865081787
tp4882
a(F0.5
F1.0471975803375244
tp4883
a(F0.5
F1.0439541339874268
tp4884
a(F0.5
F1.0471975803375244
tp4885
a(F0.5
F1.0471975803375244
tp4886
a(F0.5
F1.0471975803375244
tp4887
a(F0.05000000074505806
F1.0471975803375244
tp4888
a(F0.05000000074505806
F1.0471975803375244
tp4889
a(F0.05000000074505806
F1.0471975803375244
tp4890
a(F0.05000000074505806
F1.0471975803375244
tp4891
a(F0.05000000074505806
F1.0471975803375244
tp4892
a(F0.05000000074505806
F1.0471975803375244
tp4893
a(F0.05000000074505806
F1.0471975803375244
tp4894
a(F0.05000000074505806
F1.0471975803375244
tp4895
a(F0.05000000074505806
F1.0471975803375244
tp4896
a(F0.05000000074505806
F1.0471975803375244
tp4897
a(F0.05000000074505806
F1.0471975803375244
tp4898
a(F0.05000000074505806
F1.0471975803375244
tp4899
a(F0.05000000074505806
F1.0471975803375244
tp4900
a(F0.5
F1.0471975803375244
tp4901
a(F0.5
F1.0471975803375244
tp4902
a(F0.063033826649189
F1.0471975803375244
tp4903
a(F0.05000000074505806
F1.0471975803375244
tp4904
a(F0.5
F1.0471975803375244
tp4905
a(F0.5
F1.0471975803375244
tp4906
a(F0.10261135548353195
F1.0471975803375244
tp4907
a(F0.05000000074505806
F1.0471975803375244
tp4908
a(F0.49985775351524353
F1.0471975803375244
tp4909
a(F0.5
F1.0471975803375244
tp4910
a(F0.5
F1.0471975803375244
tp4911
a(F0.5
F1.0471975803375244
tp4912
a(F0.5
F1.0471975803375244
tp4913
a(F0.5
F1.0471975803375244
tp4914
a(F0.05000000074505806
F1.0471975803375244
tp4915
a(F0.05000000074505806
F1.0471975803375244
tp4916
a(F0.05000000074505806
F1.0471975803375244
tp4917
a(F0.4874071180820465
F1.0471975803375244
tp4918
a(F0.05000000074505806
F1.0471975803375244
tp4919
a(F0.05000000074505806
F1.0471975803375244
tp4920
a(F0.05000000074505806
F1.0471975803375244
tp4921
a(F0.05000000074505806
F1.0471975803375244
tp4922
a(F0.05000000074505806
F1.0471975803375244
tp4923
a(F0.05000000074505806
F1.0471975803375244
tp4924
a(F0.05000000074505806
F1.0471975803375244
tp4925
a(F0.05000000074505806
F1.0471975803375244
tp4926
a(F0.5
F1.0471975803375244
tp4927
a(F0.5
F1.0471975803375244
tp4928
a(F0.5
F1.0471975803375244
tp4929
a(F0.05000000074505806
F1.0471975803375244
tp4930
a(F0.5
F1.0471975803375244
tp4931
a(F0.49944373965263367
F1.0471975803375244
tp4932
a(F0.05000000074505806
F1.0471975803375244
tp4933
a(F0.05000000074505806
F1.0471975803375244
tp4934
a(F0.2938980162143707
F1.0471975803375244
tp4935
a(F0.05000000074505806
F1.0471975803375244
tp4936
a(F0.05000000074505806
F1.0471975803375244
tp4937
a(F0.05000000074505806
F1.0471975803375244
tp4938
a(F0.497891366481781
F1.0471975803375244
tp4939
a(F0.5
F1.0471975803375244
tp4940
a(F0.5
F1.0471975803375244
tp4941
a(F0.0
F0.0
tp4942
a(F0.0
F0.0
tp4943
a(F0.0
F0.0
tp4944
a(F0.05000000074505806
F1.0471975803375244
tp4945
a(F0.05000000074505806
F1.0471975803375244
tp4946
a(F0.05000000074505806
F1.0471975803375244
tp4947
a(F0.05000000074505806
F1.0471975803375244
tp4948
a(F0.05000000074505806
F1.0471975803375244
tp4949
a(F0.05000000074505806
F1.0471975803375244
tp4950
a(F0.05000000074505806
F1.0471975803375244
tp4951
a(F0.05000000074505806
F1.0471975803375244
tp4952
a(F0.05000000074505806
F1.0471975803375244
tp4953
a(F0.05000000074505806
F1.0471975803375244
tp4954
a(F0.0
F0.0
tp4955
a(F0.0
F0.0
tp4956
a(F0.0
F0.0
tp4957
a(F0.0
F0.0
tp4958
a(F0.5
F1.0471975803375244
tp4959
a(F0.5
F1.0471975803375244
tp4960
a(F0.5
F1.0471975803375244
tp4961
a(F0.5
F1.0471975803375244
tp4962
a(F0.5
F-1.0471975803375244
tp4963
a(F0.5
F-1.0471975803375244
tp4964
a(F0.5
F-1.0471975803375244
tp4965
a(F0.5
F-1.0471975803375244
tp4966
a(F0.5
F-1.0471975803375244
tp4967
a(F0.5
F1.0471975803375244
tp4968
a(F0.5
F1.0471975803375244
tp4969
a(F0.5
F1.0471975803375244
tp4970
a(F0.5
F1.0471975803375244
tp4971
a(F0.5
F-1.0471975803375244
tp4972
a(F0.0
F0.0
tp4973
a(F0.5
F1.0471975803375244
tp4974
a(F0.5
F-1.0471975803375244
tp4975
a(F0.5
F-1.0471975803375244
tp4976
a(F0.5
F1.0471975803375244
tp4977
a(F0.5
F1.0471975803375244
tp4978
a(F0.5
F1.0471975803375244
tp4979
a(F0.5
F0.979549765586853
tp4980
a(F0.5
F-1.0471975803375244
tp4981
a(F0.5
F-1.0471975803375244
tp4982
a(F0.5
F-1.0471975803375244
tp4983
a(F0.5
F-1.0471975803375244
tp4984
a(F0.5
F-1.0471975803375244
tp4985
a(F0.5
F-1.0471975803375244
tp4986
a(F0.5
F-1.0471975803375244
tp4987
a(F0.5
F1.034692645072937
tp4988
a(F0.5
F-1.0471975803375244
tp4989
a(F0.5
F-1.0471972227096558
tp4990
a(F0.5
F1.0471975803375244
tp4991
a(F0.5
F-1.0471712350845337
tp4992
a(F0.5
F1.0471975803375244
tp4993
a(F0.5
F1.0471975803375244
tp4994
a(F0.5
F1.0471975803375244
tp4995
a(F0.0
F0.0
tp4996
a(F0.5
F1.0471975803375244
tp4997
a(F0.05000000074505806
F1.0471975803375244
tp4998
a(F0.5
F1.0471975803375244
tp4999
a(F0.05000000074505806
F1.0471975803375244
tp5000
a(F0.05000000074505806
F1.0471975803375244
tp5001
a(F0.05000000074505806
F1.0471975803375244
tp5002
a(F0.05000000074505806
F1.0471975803375244
tp5003
a(F0.0
F0.0
tp5004
a(F0.05000000074505806
F1.0471975803375244
tp5005
a(F0.05000000074505806
F1.0471975803375244
tp5006
a(F0.05000000074505806
F1.0471975803375244
tp5007
a(F0.05000000074505806
F1.0471975803375244
tp5008
a(F0.05000000074505806
F1.0471975803375244
tp5009
a(F0.5
F1.0471975803375244
tp5010
a(F0.5
F1.0471975803375244
tp5011
a(F0.5
F1.0471975803375244
tp5012
a(F0.4999995827674866
F1.0471975803375244
tp5013
a(F0.05000000074505806
F1.0471975803375244
tp5014
a(F0.05000000074505806
F1.0471975803375244
tp5015
a(F0.05000000074505806
F1.0471975803375244
tp5016
a(F0.05000000074505806
F1.0471975803375244
tp5017
a(F0.5
F1.0471975803375244
tp5018
a(F0.5
F1.0471975803375244
tp5019
a(F0.4999971389770508
F1.0471975803375244
tp5020
a(F0.05000000074505806
F1.0471975803375244
tp5021
a(F0.05000000074505806
F1.0471975803375244
tp5022
a(F0.5
F1.0471975803375244
tp5023
a(F0.5
F1.0471975803375244
tp5024
a(F0.0
F0.0
tp5025
a(F0.0
F0.0
tp5026
a(F0.05000000074505806
F1.0471975803375244
tp5027
a(F0.05000000074505806
F1.0471975803375244
tp5028
a(F0.05000000074505806
F1.0471975803375244
tp5029
a(F0.05000000074505806
F1.0471975803375244
tp5030
a(F0.05000000074505806
F1.0471975803375244
tp5031
a(F0.05000000074505806
F1.0471975803375244
tp5032
a(F0.05000000074505806
F1.0471975803375244
tp5033
a(F0.05000000074505806
F1.0471975803375244
tp5034
a(F0.05000000074505806
F1.0471975803375244
tp5035
a(F0.05000000074505806
F1.0471975803375244
tp5036
a(F0.05000000074505806
F1.0471975803375244
tp5037
a(F0.0
F0.0
tp5038
a(F0.0
F0.0
tp5039
a(F0.0
F0.0
tp5040
a(F0.0
F0.0
tp5041
a(F0.5
F1.0471975803375244
tp5042
a(F0.5
F1.0471975803375244
tp5043
a(F0.5
F1.0471975803375244
tp5044
a(F0.5
F-1.0471975803375244
tp5045
a(F0.5
F1.0453397035598755
tp5046
a(F0.5
F-1.0466325283050537
tp5047
a(F0.5
F1.0471975803375244
tp5048
a(F0.5
F1.0471975803375244
tp5049
a(F0.5
F-1.0469368696212769
tp5050
a(F0.5
F-1.0471699237823486
tp5051
a(F0.5
F1.0471975803375244
tp5052
a(F0.5
F1.0471975803375244
tp5053
a(F0.5
F1.0471975803375244
tp5054
a(F0.5
F1.0471975803375244
tp5055
a(F0.5
F-1.0471975803375244
tp5056
a(F0.5
F1.0471975803375244
tp5057
a(F0.5
F1.0471975803375244
tp5058
a(F0.5
F-1.0471975803375244
tp5059
a(F0.5
F-1.0471975803375244
tp5060
a(F0.5
F-1.0471975803375244
tp5061
a(F0.5
F-1.0471975803375244
tp5062
a(F0.5
F-0.4295361042022705
tp5063
a(F0.5
F-1.0471975803375244
tp5064
a(F0.5
F-1.0471975803375244
tp5065
a(F0.5
F-1.0471975803375244
tp5066
a(F0.5
F-1.0466190576553345
tp5067
a(F0.5
F1.0471975803375244
tp5068
a(F0.5
F1.0471975803375244
tp5069
a(F0.5
F1.0471975803375244
tp5070
a(F0.5
F1.0471971035003662
tp5071
a(F0.5
F-1.0172920227050781
tp5072
a(F0.5
F1.0471975803375244
tp5073
a(F0.5
F-1.0471975803375244
tp5074
a(F0.5
F-1.046788215637207
tp5075
a(F0.5
F1.047039270401001
tp5076
a(F0.5
F0.4213167726993561
tp5077
a(F0.5
F1.0447626113891602
tp5078
a(F0.49999988079071045
F1.0471975803375244
tp5079
a(F0.49946263432502747
F1.0471975803375244
tp5080
a(F0.5
F1.0471975803375244
tp5081
a(F0.5
F1.0471975803375244
tp5082
a(F0.05000000074505806
F1.0471975803375244
tp5083
a(F0.05000000074505806
F1.0471975803375244
tp5084
a(F0.05000000074505806
F1.0471975803375244
tp5085
a(F0.05000000074505806
F1.0471975803375244
tp5086
a(F0.05000000074505806
F1.0471975803375244
tp5087
a(F0.05000000074505806
F1.0471975803375244
tp5088
a(F0.05000000074505806
F1.0471975803375244
tp5089
a(F0.05000000074505806
F1.0471975803375244
tp5090
a(F0.05000000074505806
F1.0471975803375244
tp5091
a(F0.05000000074505806
F1.0471975803375244
tp5092
a(F0.05000000074505806
F1.0471975803375244
tp5093
a(F0.05000000074505806
F1.0471975803375244
tp5094
a(F0.05000000074505806
F1.0471975803375244
tp5095
a(F0.5
F1.0471975803375244
tp5096
a(F0.5
F1.0471975803375244
tp5097
a(F0.05000000074505806
F1.0471975803375244
tp5098
a(F0.05000000074505806
F1.0471975803375244
tp5099
a(F0.05000000074505806
F1.0471975803375244
tp5100
a(F0.5
F1.0471975803375244
tp5101
a(F0.5
F1.0471975803375244
tp5102
a(F0.5
F1.0471975803375244
tp5103
a(F0.5
F1.0471975803375244
tp5104
a(F0.4999716281890869
F1.0471975803375244
tp5105
a(F0.5
F1.0471975803375244
tp5106
a(F0.05000000074505806
F1.0471975803375244
tp5107
a(F0.05000000074505806
F1.0471975803375244
tp5108
a(F0.05000000074505806
F1.0471975803375244
tp5109
a(F0.05000000074505806
F1.0471975803375244
tp5110
a(F0.05000000074505806
F1.0471975803375244
tp5111
a(F0.49999964237213135
F1.0471975803375244
tp5112
a(F0.05000000074505806
F1.0471975803375244
tp5113
a(F0.05000000074505806
F1.0471975803375244
tp5114
a(F0.05000000074505806
F1.0471975803375244
tp5115
a(F0.05000000074505806
F1.0471975803375244
tp5116
a(F0.05000000074505806
F1.0471975803375244
tp5117
a(F0.05000000074505806
F1.0471975803375244
tp5118
a(F0.05000000074505806
F1.0471975803375244
tp5119
a(F0.05000000074505806
F1.0471975803375244
tp5120
a(F0.05000000074505806
F1.0471975803375244
tp5121
a(F0.05000000074505806
F1.0471975803375244
tp5122
a(F0.05000000074505806
F1.0471975803375244
tp5123
a(F0.5
F1.0471975803375244
tp5124
a(F0.5
F1.0471975803375244
tp5125
a(F0.5
F1.0471975803375244
tp5126
a(F0.05000000074505806
F1.0471975803375244
tp5127
a(F0.05000000074505806
F1.0471975803375244
tp5128
a(F0.05000000074505806
F1.0471975803375244
tp5129
a(F0.0
F0.0
tp5130
a(F0.5
F1.0471975803375244
tp5131
a(F0.0
F0.0
tp5132
a(F0.0
F0.0
tp5133
a(F0.5
F-1.0471975803375244
tp5134
a(F0.5
F-1.0471975803375244
tp5135
a(F0.5
F-1.0471975803375244
tp5136
a(F0.5
F-1.0471858978271484
tp5137
a(F0.5
F1.0471975803375244
tp5138
a(F0.5
F1.0471975803375244
tp5139
a(F0.5
F-1.0471975803375244
tp5140
a(F0.5
F-1.0471975803375244
tp5141
a(F0.5
F-1.0471975803375244
tp5142
a(F0.5
F1.0471975803375244
tp5143
a(F0.5
F1.0471975803375244
tp5144
a(F0.0
F0.0
tp5145
a(F0.0
F0.0
tp5146
a(F0.0
F0.0
tp5147
a(F0.0
F0.0
tp5148
a(F0.0
F0.0
tp5149
a(F0.0
F0.0
tp5150
a(F0.0
F0.0
tp5151
a(F0.05000000074505806
F1.0471975803375244
tp5152
a(F0.05000000074505806
F1.0471975803375244
tp5153
a(F0.05000000074505806
F1.0471975803375244
tp5154
a(F0.05000000074505806
F1.0471975803375244
tp5155
a(F0.05000000074505806
F1.0471975803375244
tp5156
a(F0.05000000074505806
F1.0471975803375244
tp5157
a(F0.05000000074505806
F1.0471975803375244
tp5158
a(F0.4999985694885254
F1.0471975803375244
tp5159
a(F0.5
F1.0471975803375244
tp5160
a(F0.0
F0.0
tp5161
a(F0.0
F0.0
tp5162
a(F0.0
F0.0
tp5163
a(F0.0
F0.0
tp5164
a(F0.5
F-1.0471975803375244
tp5165
a(F0.5
F1.0274230241775513
tp5166
a(F0.5
F1.0274230241775513
tp5167
a(F0.5
F-1.0471975803375244
tp5168
a.